
encrypted_secret:     file format elf64-x86-64


Disassembly of section .init:

0000000000400648 <.init>:
  400648:	48 83 ec 08          	sub    rsp,0x8
  40064c:	48 8b 05 a5 29 20 00 	mov    rax,QWORD PTR [rip+0x2029a5]        # 602ff8 <exit@plt+0x202908>
  400653:	48 85 c0             	test   rax,rax
  400656:	74 02                	je     40065a <puts@plt-0x16>
  400658:	ff d0                	call   rax
  40065a:	48 83 c4 08          	add    rsp,0x8
  40065e:	c3                   	ret    

Disassembly of section .plt:

0000000000400660 <puts@plt-0x10>:
  400660:	ff 35 32 29 20 00    	push   QWORD PTR [rip+0x202932]        # 602f98 <exit@plt+0x2028a8>
  400666:	ff 25 34 29 20 00    	jmp    QWORD PTR [rip+0x202934]        # 602fa0 <exit@plt+0x2028b0>
  40066c:	0f 1f 40 00          	nop    DWORD PTR [rax+0x0]

0000000000400670 <puts@plt>:
  400670:	ff 25 32 29 20 00    	jmp    QWORD PTR [rip+0x202932]        # 602fa8 <exit@plt+0x2028b8>
  400676:	68 00 00 00 00       	push   0x0
  40067b:	e9 e0 ff ff ff       	jmp    400660 <puts@plt-0x10>

0000000000400680 <__stack_chk_fail@plt>:
  400680:	ff 25 2a 29 20 00    	jmp    QWORD PTR [rip+0x20292a]        # 602fb0 <exit@plt+0x2028c0>
  400686:	68 01 00 00 00       	push   0x1
  40068b:	e9 d0 ff ff ff       	jmp    400660 <puts@plt-0x10>

0000000000400690 <printf@plt>:
  400690:	ff 25 22 29 20 00    	jmp    QWORD PTR [rip+0x202922]        # 602fb8 <exit@plt+0x2028c8>
  400696:	68 02 00 00 00       	push   0x2
  40069b:	e9 c0 ff ff ff       	jmp    400660 <puts@plt-0x10>

00000000004006a0 <close@plt>:
  4006a0:	ff 25 1a 29 20 00    	jmp    QWORD PTR [rip+0x20291a]        # 602fc0 <exit@plt+0x2028d0>
  4006a6:	68 03 00 00 00       	push   0x3
  4006ab:	e9 b0 ff ff ff       	jmp    400660 <puts@plt-0x10>

00000000004006b0 <read@plt>:
  4006b0:	ff 25 12 29 20 00    	jmp    QWORD PTR [rip+0x202912]        # 602fc8 <exit@plt+0x2028d8>
  4006b6:	68 04 00 00 00       	push   0x4
  4006bb:	e9 a0 ff ff ff       	jmp    400660 <puts@plt-0x10>

00000000004006c0 <setvbuf@plt>:
  4006c0:	ff 25 0a 29 20 00    	jmp    QWORD PTR [rip+0x20290a]        # 602fd0 <exit@plt+0x2028e0>
  4006c6:	68 05 00 00 00       	push   0x5
  4006cb:	e9 90 ff ff ff       	jmp    400660 <puts@plt-0x10>

00000000004006d0 <open@plt>:
  4006d0:	ff 25 02 29 20 00    	jmp    QWORD PTR [rip+0x202902]        # 602fd8 <exit@plt+0x2028e8>
  4006d6:	68 06 00 00 00       	push   0x6
  4006db:	e9 80 ff ff ff       	jmp    400660 <puts@plt-0x10>

00000000004006e0 <__isoc99_scanf@plt>:
  4006e0:	ff 25 fa 28 20 00    	jmp    QWORD PTR [rip+0x2028fa]        # 602fe0 <exit@plt+0x2028f0>
  4006e6:	68 07 00 00 00       	push   0x7
  4006eb:	e9 70 ff ff ff       	jmp    400660 <puts@plt-0x10>

00000000004006f0 <exit@plt>:
  4006f0:	ff 25 f2 28 20 00    	jmp    QWORD PTR [rip+0x2028f2]        # 602fe8 <exit@plt+0x2028f8>
  4006f6:	68 08 00 00 00       	push   0x8
  4006fb:	e9 60 ff ff ff       	jmp    400660 <puts@plt-0x10>

Disassembly of section .text:

0000000000400700 <.text>:
  400700:	31 ed                	xor    ebp,ebp
  400702:	49 89 d1             	mov    r9,rdx
  400705:	5e                   	pop    rsi
  400706:	48 89 e2             	mov    rdx,rsp
  400709:	48 83 e4 f0          	and    rsp,0xfffffffffffffff0
  40070d:	50                   	push   rax
  40070e:	54                   	push   rsp
  40070f:	49 c7 c0 60 20 40 00 	mov    r8,0x402060
  400716:	48 c7 c1 f0 1f 40 00 	mov    rcx,0x401ff0
  40071d:	48 c7 c7 4a 0a 40 00 	mov    rdi,0x400a4a
  400724:	ff 15 c6 28 20 00    	call   QWORD PTR [rip+0x2028c6]        # 602ff0 <exit@plt+0x202900>
  40072a:	f4                   	hlt    
  40072b:	0f 1f 44 00 00       	nop    DWORD PTR [rax+rax*1+0x0]
  400730:	f3 c3                	repz ret 
  400732:	66 2e 0f 1f 84 00 00 	nop    WORD PTR cs:[rax+rax*1+0x0]
  400739:	00 00 00 
  40073c:	0f 1f 40 00          	nop    DWORD PTR [rax+0x0]
  400740:	55                   	push   rbp
  400741:	b8 10 30 60 00       	mov    eax,0x603010
  400746:	48 3d 10 30 60 00    	cmp    rax,0x603010
  40074c:	48 89 e5             	mov    rbp,rsp
  40074f:	74 17                	je     400768 <exit@plt+0x78>
  400751:	b8 00 00 00 00       	mov    eax,0x0
  400756:	48 85 c0             	test   rax,rax
  400759:	74 0d                	je     400768 <exit@plt+0x78>
  40075b:	5d                   	pop    rbp
  40075c:	bf 10 30 60 00       	mov    edi,0x603010
  400761:	ff e0                	jmp    rax
  400763:	0f 1f 44 00 00       	nop    DWORD PTR [rax+rax*1+0x0]
  400768:	5d                   	pop    rbp
  400769:	c3                   	ret    
  40076a:	66 0f 1f 44 00 00    	nop    WORD PTR [rax+rax*1+0x0]
  400770:	be 10 30 60 00       	mov    esi,0x603010
  400775:	55                   	push   rbp
  400776:	48 81 ee 10 30 60 00 	sub    rsi,0x603010
  40077d:	48 89 e5             	mov    rbp,rsp
  400780:	48 c1 fe 03          	sar    rsi,0x3
  400784:	48 89 f0             	mov    rax,rsi
  400787:	48 c1 e8 3f          	shr    rax,0x3f
  40078b:	48 01 c6             	add    rsi,rax
  40078e:	48 d1 fe             	sar    rsi,1
  400791:	74 15                	je     4007a8 <exit@plt+0xb8>
  400793:	b8 00 00 00 00       	mov    eax,0x0
  400798:	48 85 c0             	test   rax,rax
  40079b:	74 0b                	je     4007a8 <exit@plt+0xb8>
  40079d:	5d                   	pop    rbp
  40079e:	bf 10 30 60 00       	mov    edi,0x603010
  4007a3:	ff e0                	jmp    rax
  4007a5:	0f 1f 00             	nop    DWORD PTR [rax]
  4007a8:	5d                   	pop    rbp
  4007a9:	c3                   	ret    
  4007aa:	66 0f 1f 44 00 00    	nop    WORD PTR [rax+rax*1+0x0]
  4007b0:	80 3d 71 28 20 00 00 	cmp    BYTE PTR [rip+0x202871],0x0        # 603028 <stdin@@GLIBC_2.2.5+0x8>
  4007b7:	75 17                	jne    4007d0 <exit@plt+0xe0>
  4007b9:	55                   	push   rbp
  4007ba:	48 89 e5             	mov    rbp,rsp
  4007bd:	e8 7e ff ff ff       	call   400740 <exit@plt+0x50>
  4007c2:	c6 05 5f 28 20 00 01 	mov    BYTE PTR [rip+0x20285f],0x1        # 603028 <stdin@@GLIBC_2.2.5+0x8>
  4007c9:	5d                   	pop    rbp
  4007ca:	c3                   	ret    
  4007cb:	0f 1f 44 00 00       	nop    DWORD PTR [rax+rax*1+0x0]
  4007d0:	f3 c3                	repz ret 
  4007d2:	0f 1f 40 00          	nop    DWORD PTR [rax+0x0]
  4007d6:	66 2e 0f 1f 84 00 00 	nop    WORD PTR cs:[rax+rax*1+0x0]
  4007dd:	00 00 00 
  4007e0:	55                   	push   rbp
  4007e1:	48 89 e5             	mov    rbp,rsp
  4007e4:	5d                   	pop    rbp
  4007e5:	eb 89                	jmp    400770 <exit@plt+0x80>
  4007e7:	55                   	push   rbp
  4007e8:	48 89 e5             	mov    rbp,rsp
  4007eb:	48 83 ec 10          	sub    rsp,0x10
  4007ef:	48 8b 05 2a 28 20 00 	mov    rax,QWORD PTR [rip+0x20282a]        # 603020 <stdin@@GLIBC_2.2.5>
  4007f6:	b9 00 00 00 00       	mov    ecx,0x0
  4007fb:	ba 02 00 00 00       	mov    edx,0x2
  400800:	be 00 00 00 00       	mov    esi,0x0
  400805:	48 89 c7             	mov    rdi,rax
  400808:	e8 b3 fe ff ff       	call   4006c0 <setvbuf@plt>
  40080d:	48 8b 05 fc 27 20 00 	mov    rax,QWORD PTR [rip+0x2027fc]        # 603010 <stdout@@GLIBC_2.2.5>
  400814:	b9 00 00 00 00       	mov    ecx,0x0
  400819:	ba 02 00 00 00       	mov    edx,0x2
  40081e:	be 00 00 00 00       	mov    esi,0x0
  400823:	48 89 c7             	mov    rdi,rax
  400826:	e8 95 fe ff ff       	call   4006c0 <setvbuf@plt>
  40082b:	be 00 00 00 00       	mov    esi,0x0
  400830:	48 8d 3d 51 18 00 00 	lea    rdi,[rip+0x1851]        # 402088 <exit@plt+0x1998>
  400837:	b8 00 00 00 00       	mov    eax,0x0
  40083c:	e8 8f fe ff ff       	call   4006d0 <open@plt>
  400841:	89 45 f8             	mov    DWORD PTR [rbp-0x8],eax
  400844:	83 7d f8 00          	cmp    DWORD PTR [rbp-0x8],0x0
  400848:	7f 0a                	jg     400854 <exit@plt+0x164>
  40084a:	bf ff ff ff ff       	mov    edi,0xffffffff
  40084f:	e8 9c fe ff ff       	call   4006f0 <exit@plt>
  400854:	8b 45 f8             	mov    eax,DWORD PTR [rbp-0x8]
  400857:	ba 10 00 00 00       	mov    edx,0x10
  40085c:	48 8d 35 cd 27 20 00 	lea    rsi,[rip+0x2027cd]        # 603030 <stdin@@GLIBC_2.2.5+0x10>
  400863:	89 c7                	mov    edi,eax
  400865:	e8 46 fe ff ff       	call   4006b0 <read@plt>
  40086a:	89 45 fc             	mov    DWORD PTR [rbp-0x4],eax
  40086d:	83 7d fc 10          	cmp    DWORD PTR [rbp-0x4],0x10
  400871:	74 0a                	je     40087d <exit@plt+0x18d>
  400873:	bf ff ff ff ff       	mov    edi,0xffffffff
  400878:	e8 73 fe ff ff       	call   4006f0 <exit@plt>
  40087d:	8b 45 f8             	mov    eax,DWORD PTR [rbp-0x8]
  400880:	ba 10 00 00 00       	mov    edx,0x10
  400885:	48 8d 35 b4 27 20 00 	lea    rsi,[rip+0x2027b4]        # 603040 <stdin@@GLIBC_2.2.5+0x20>
  40088c:	89 c7                	mov    edi,eax
  40088e:	e8 1d fe ff ff       	call   4006b0 <read@plt>
  400893:	89 45 fc             	mov    DWORD PTR [rbp-0x4],eax
  400896:	83 7d fc 10          	cmp    DWORD PTR [rbp-0x4],0x10
  40089a:	74 0a                	je     4008a6 <exit@plt+0x1b6>
  40089c:	bf ff ff ff ff       	mov    edi,0xffffffff
  4008a1:	e8 4a fe ff ff       	call   4006f0 <exit@plt>
  4008a6:	8b 45 f8             	mov    eax,DWORD PTR [rbp-0x8]
  4008a9:	89 c7                	mov    edi,eax
  4008ab:	e8 f0 fd ff ff       	call   4006a0 <close@plt>
  4008b0:	90                   	nop
  4008b1:	c9                   	leave  
  4008b2:	c3                   	ret    
  4008b3:	55                   	push   rbp
  4008b4:	48 89 e5             	mov    rbp,rsp
  4008b7:	48 89 7d e8          	mov    QWORD PTR [rbp-0x18],rdi
  4008bb:	89 75 e4             	mov    DWORD PTR [rbp-0x1c],esi
  4008be:	8b 45 e4             	mov    eax,DWORD PTR [rbp-0x1c]
  4008c1:	83 e0 0f             	and    eax,0xf
  4008c4:	ba 10 00 00 00       	mov    edx,0x10
  4008c9:	29 c2                	sub    edx,eax
  4008cb:	89 d0                	mov    eax,edx
  4008cd:	88 45 fb             	mov    BYTE PTR [rbp-0x5],al
  4008d0:	c7 45 fc 00 00 00 00 	mov    DWORD PTR [rbp-0x4],0x0
  4008d7:	eb 1b                	jmp    4008f4 <exit@plt+0x204>
  4008d9:	8b 55 fc             	mov    edx,DWORD PTR [rbp-0x4]
  4008dc:	8b 45 e4             	mov    eax,DWORD PTR [rbp-0x1c]
  4008df:	01 d0                	add    eax,edx
  4008e1:	89 c2                	mov    edx,eax
  4008e3:	48 8b 45 e8          	mov    rax,QWORD PTR [rbp-0x18]
  4008e7:	48 01 c2             	add    rdx,rax
  4008ea:	0f b6 45 fb          	movzx  eax,BYTE PTR [rbp-0x5]
  4008ee:	88 02                	mov    BYTE PTR [rdx],al
  4008f0:	83 45 fc 01          	add    DWORD PTR [rbp-0x4],0x1
  4008f4:	0f b6 45 fb          	movzx  eax,BYTE PTR [rbp-0x5]
  4008f8:	39 45 fc             	cmp    DWORD PTR [rbp-0x4],eax
  4008fb:	7c dc                	jl     4008d9 <exit@plt+0x1e9>
  4008fd:	0f b6 55 fb          	movzx  edx,BYTE PTR [rbp-0x5]
  400901:	8b 45 e4             	mov    eax,DWORD PTR [rbp-0x1c]
  400904:	01 d0                	add    eax,edx
  400906:	5d                   	pop    rbp
  400907:	c3                   	ret    
  400908:	55                   	push   rbp
  400909:	48 89 e5             	mov    rbp,rsp
  40090c:	48 81 ec e0 00 00 00 	sub    rsp,0xe0
  400913:	48 89 bd 28 ff ff ff 	mov    QWORD PTR [rbp-0xd8],rdi
  40091a:	89 b5 24 ff ff ff    	mov    DWORD PTR [rbp-0xdc],esi
  400920:	64 48 8b 04 25 28 00 	mov    rax,QWORD PTR fs:0x28
  400927:	00 00 
  400929:	48 89 45 f8          	mov    QWORD PTR [rbp-0x8],rax
  40092d:	31 c0                	xor    eax,eax
  40092f:	48 8d 85 30 ff ff ff 	lea    rax,[rbp-0xd0]
  400936:	48 8d 35 f3 26 20 00 	lea    rsi,[rip+0x2026f3]        # 603030 <stdin@@GLIBC_2.2.5+0x10>
  40093d:	48 89 c7             	mov    rdi,rax
  400940:	e8 a9 04 00 00       	call   400dee <exit@plt+0x6fe>
  400945:	48 8d 85 30 ff ff ff 	lea    rax,[rbp-0xd0]
  40094c:	48 8d 35 ed 26 20 00 	lea    rsi,[rip+0x2026ed]        # 603040 <stdin@@GLIBC_2.2.5+0x20>
  400953:	48 89 c7             	mov    rdi,rax
  400956:	e8 00 05 00 00       	call   400e5b <exit@plt+0x76b>
  40095b:	8b 95 24 ff ff ff    	mov    edx,DWORD PTR [rbp-0xdc]
  400961:	48 8b 8d 28 ff ff ff 	mov    rcx,QWORD PTR [rbp-0xd8]
  400968:	48 8d 85 30 ff ff ff 	lea    rax,[rbp-0xd0]
  40096f:	48 89 ce             	mov    rsi,rcx
  400972:	48 89 c7             	mov    rdi,rax
  400975:	e8 06 14 00 00       	call   401d80 <exit@plt+0x1690>
  40097a:	90                   	nop
  40097b:	48 8b 45 f8          	mov    rax,QWORD PTR [rbp-0x8]
  40097f:	64 48 33 04 25 28 00 	xor    rax,QWORD PTR fs:0x28
  400986:	00 00 
  400988:	74 05                	je     40098f <exit@plt+0x29f>
  40098a:	e8 f1 fc ff ff       	call   400680 <__stack_chk_fail@plt>
  40098f:	c9                   	leave  
  400990:	c3                   	ret    
  400991:	55                   	push   rbp
  400992:	48 89 e5             	mov    rbp,rsp
  400995:	48 81 ec 90 00 00 00 	sub    rsp,0x90
  40099c:	64 48 8b 04 25 28 00 	mov    rax,QWORD PTR fs:0x28
  4009a3:	00 00 
  4009a5:	48 89 45 f8          	mov    QWORD PTR [rbp-0x8],rax
  4009a9:	31 c0                	xor    eax,eax
  4009ab:	48 8d 95 70 ff ff ff 	lea    rdx,[rbp-0x90]
  4009b2:	b8 00 00 00 00       	mov    eax,0x0
  4009b7:	b9 11 00 00 00       	mov    ecx,0x11
  4009bc:	48 89 d7             	mov    rdi,rdx
  4009bf:	f3 48 ab             	rep stos QWORD PTR es:[rdi],rax
  4009c2:	48 8d 85 70 ff ff ff 	lea    rax,[rbp-0x90]
  4009c9:	48 83 c0 08          	add    rax,0x8
  4009cd:	48 89 05 84 26 20 00 	mov    QWORD PTR [rip+0x202684],rax        # 603058 <stdin@@GLIBC_2.2.5+0x38>
  4009d4:	48 8b 05 7d 26 20 00 	mov    rax,QWORD PTR [rip+0x20267d]        # 603058 <stdin@@GLIBC_2.2.5+0x38>
  4009db:	ba 80 00 00 00       	mov    edx,0x80
  4009e0:	48 89 c6             	mov    rsi,rax
  4009e3:	bf 00 00 00 00       	mov    edi,0x0
  4009e8:	e8 c3 fc ff ff       	call   4006b0 <read@plt>
  4009ed:	89 05 5d 26 20 00    	mov    DWORD PTR [rip+0x20265d],eax        # 603050 <stdin@@GLIBC_2.2.5+0x30>
  4009f3:	8b 15 57 26 20 00    	mov    edx,DWORD PTR [rip+0x202657]        # 603050 <stdin@@GLIBC_2.2.5+0x30>
  4009f9:	48 8b 05 58 26 20 00 	mov    rax,QWORD PTR [rip+0x202658]        # 603058 <stdin@@GLIBC_2.2.5+0x38>
  400a00:	89 d6                	mov    esi,edx
  400a02:	48 89 c7             	mov    rdi,rax
  400a05:	e8 a9 fe ff ff       	call   4008b3 <exit@plt+0x1c3>
  400a0a:	89 05 40 26 20 00    	mov    DWORD PTR [rip+0x202640],eax        # 603050 <stdin@@GLIBC_2.2.5+0x30>
  400a10:	8b 15 3a 26 20 00    	mov    edx,DWORD PTR [rip+0x20263a]        # 603050 <stdin@@GLIBC_2.2.5+0x30>
  400a16:	48 8b 05 3b 26 20 00 	mov    rax,QWORD PTR [rip+0x20263b]        # 603058 <stdin@@GLIBC_2.2.5+0x38>
  400a1d:	89 d6                	mov    esi,edx
  400a1f:	48 89 c7             	mov    rdi,rax
  400a22:	e8 e1 fe ff ff       	call   400908 <exit@plt+0x218>
  400a27:	48 8d 3d 6a 16 00 00 	lea    rdi,[rip+0x166a]        # 402098 <exit@plt+0x19a8>
  400a2e:	e8 3d fc ff ff       	call   400670 <puts@plt>
  400a33:	90                   	nop
  400a34:	48 8b 45 f8          	mov    rax,QWORD PTR [rbp-0x8]
  400a38:	64 48 33 04 25 28 00 	xor    rax,QWORD PTR fs:0x28
  400a3f:	00 00 
  400a41:	74 05                	je     400a48 <exit@plt+0x358>
  400a43:	e8 38 fc ff ff       	call   400680 <__stack_chk_fail@plt>
  400a48:	c9                   	leave  
  400a49:	c3                   	ret    
  400a4a:	55                   	push   rbp
  400a4b:	48 89 e5             	mov    rbp,rsp
  400a4e:	48 83 ec 50          	sub    rsp,0x50
  400a52:	64 48 8b 04 25 28 00 	mov    rax,QWORD PTR fs:0x28
  400a59:	00 00 
  400a5b:	48 89 45 f8          	mov    QWORD PTR [rbp-0x8],rax
  400a5f:	31 c0                	xor    eax,eax
  400a61:	b8 00 00 00 00       	mov    eax,0x0
  400a66:	e8 7c fd ff ff       	call   4007e7 <exit@plt+0xf7>
  400a6b:	48 c7 45 b0 00 00 00 	mov    QWORD PTR [rbp-0x50],0x0
  400a72:	00 
  400a73:	48 c7 45 b8 00 00 00 	mov    QWORD PTR [rbp-0x48],0x0
  400a7a:	00 
  400a7b:	48 c7 45 c0 00 00 00 	mov    QWORD PTR [rbp-0x40],0x0
  400a82:	00 
  400a83:	48 c7 45 c8 00 00 00 	mov    QWORD PTR [rbp-0x38],0x0
  400a8a:	00 
  400a8b:	48 c7 45 d0 00 00 00 	mov    QWORD PTR [rbp-0x30],0x0
  400a92:	00 
  400a93:	48 c7 45 d8 00 00 00 	mov    QWORD PTR [rbp-0x28],0x0
  400a9a:	00 
  400a9b:	48 c7 45 e0 00 00 00 	mov    QWORD PTR [rbp-0x20],0x0
  400aa2:	00 
  400aa3:	48 c7 45 e8 00 00 00 	mov    QWORD PTR [rbp-0x18],0x0
  400aaa:	00 
  400aab:	48 8d 3d 0e 16 00 00 	lea    rdi,[rip+0x160e]        # 4020c0 <exit@plt+0x19d0>
  400ab2:	b8 00 00 00 00       	mov    eax,0x0
  400ab7:	e8 d4 fb ff ff       	call   400690 <printf@plt>
  400abc:	48 8d 45 b0          	lea    rax,[rbp-0x50]
  400ac0:	48 89 c6             	mov    rsi,rax
  400ac3:	48 8d 3d 02 16 00 00 	lea    rdi,[rip+0x1602]        # 4020cc <exit@plt+0x19dc>
  400aca:	b8 00 00 00 00       	mov    eax,0x0
  400acf:	e8 0c fc ff ff       	call   4006e0 <__isoc99_scanf@plt>                              # first input
  400ad4:	48 8d 3d f6 15 00 00 	lea    rdi,[rip+0x15f6]        # 4020d1 <exit@plt+0x19e1>
  400adb:	b8 00 00 00 00       	mov    eax,0x0
  400ae0:	e8 ab fb ff ff       	call   400690 <printf@plt>
  400ae5:	48 8d 45 b0          	lea    rax,[rbp-0x50]
  400ae9:	48 89 c7             	mov    rdi,rax
  400aec:	b8 00 00 00 00       	mov    eax,0x0
  400af1:	e8 9a fb ff ff       	call   400690 <printf@plt>
  400af6:	48 8d 3d d8 15 00 00 	lea    rdi,[rip+0x15d8]        # 4020d5 <exit@plt+0x19e5>
  400afd:	e8 6e fb ff ff       	call   400670 <puts@plt>
  400b02:	b8 00 00 00 00       	mov    eax,0x0
  400b07:	e8 85 fe ff ff       	call   400991 <exit@plt+0x2a1>
  400b0c:	b8 00 00 00 00       	mov    eax,0x0
  400b11:	48 8b 55 f8          	mov    rdx,QWORD PTR [rbp-0x8]
  400b15:	64 48 33 14 25 28 00 	xor    rdx,QWORD PTR fs:0x28
  400b1c:	00 00 
  400b1e:	74 05                	je     400b25 <exit@plt+0x435>
  400b20:	e8 5b fb ff ff       	call   400680 <__stack_chk_fail@plt>
  400b25:	c9                   	leave  
  400b26:	c3                   	ret    
  400b27:	55                   	push   rbp
  400b28:	48 89 e5             	mov    rbp,rsp
  400b2b:	48 83 ec 30          	sub    rsp,0x30
  400b2f:	48 89 7d d8          	mov    QWORD PTR [rbp-0x28],rdi
  400b33:	48 89 75 d0          	mov    QWORD PTR [rbp-0x30],rsi
  400b37:	64 48 8b 04 25 28 00 	mov    rax,QWORD PTR fs:0x28
  400b3e:	00 00 
  400b40:	48 89 45 f8          	mov    QWORD PTR [rbp-0x8],rax
  400b44:	31 c0                	xor    eax,eax
  400b46:	c7 45 e8 00 00 00 00 	mov    DWORD PTR [rbp-0x18],0x0
  400b4d:	e9 a2 00 00 00       	jmp    400bf4 <exit@plt+0x504>
  400b52:	8b 45 e8             	mov    eax,DWORD PTR [rbp-0x18]
  400b55:	c1 e0 02             	shl    eax,0x2
  400b58:	89 c2                	mov    edx,eax
  400b5a:	48 8b 45 d0          	mov    rax,QWORD PTR [rbp-0x30]
  400b5e:	48 01 d0             	add    rax,rdx
  400b61:	8b 55 e8             	mov    edx,DWORD PTR [rbp-0x18]
  400b64:	c1 e2 02             	shl    edx,0x2
  400b67:	89 d1                	mov    ecx,edx
  400b69:	48 8b 55 d8          	mov    rdx,QWORD PTR [rbp-0x28]
  400b6d:	48 01 ca             	add    rdx,rcx
  400b70:	0f b6 00             	movzx  eax,BYTE PTR [rax]
  400b73:	88 02                	mov    BYTE PTR [rdx],al
  400b75:	8b 45 e8             	mov    eax,DWORD PTR [rbp-0x18]
  400b78:	c1 e0 02             	shl    eax,0x2
  400b7b:	83 c0 01             	add    eax,0x1
  400b7e:	89 c2                	mov    edx,eax
  400b80:	48 8b 45 d0          	mov    rax,QWORD PTR [rbp-0x30]
  400b84:	48 01 d0             	add    rax,rdx
  400b87:	8b 55 e8             	mov    edx,DWORD PTR [rbp-0x18]
  400b8a:	c1 e2 02             	shl    edx,0x2
  400b8d:	83 c2 01             	add    edx,0x1
  400b90:	89 d1                	mov    ecx,edx
  400b92:	48 8b 55 d8          	mov    rdx,QWORD PTR [rbp-0x28]
  400b96:	48 01 ca             	add    rdx,rcx
  400b99:	0f b6 00             	movzx  eax,BYTE PTR [rax]
  400b9c:	88 02                	mov    BYTE PTR [rdx],al
  400b9e:	8b 45 e8             	mov    eax,DWORD PTR [rbp-0x18]
  400ba1:	c1 e0 02             	shl    eax,0x2
  400ba4:	83 c0 02             	add    eax,0x2
  400ba7:	89 c2                	mov    edx,eax
  400ba9:	48 8b 45 d0          	mov    rax,QWORD PTR [rbp-0x30]
  400bad:	48 01 d0             	add    rax,rdx
  400bb0:	8b 55 e8             	mov    edx,DWORD PTR [rbp-0x18]
  400bb3:	c1 e2 02             	shl    edx,0x2
  400bb6:	83 c2 02             	add    edx,0x2
  400bb9:	89 d1                	mov    ecx,edx
  400bbb:	48 8b 55 d8          	mov    rdx,QWORD PTR [rbp-0x28]
  400bbf:	48 01 ca             	add    rdx,rcx
  400bc2:	0f b6 00             	movzx  eax,BYTE PTR [rax]
  400bc5:	88 02                	mov    BYTE PTR [rdx],al
  400bc7:	8b 45 e8             	mov    eax,DWORD PTR [rbp-0x18]
  400bca:	c1 e0 02             	shl    eax,0x2
  400bcd:	83 c0 03             	add    eax,0x3
  400bd0:	89 c2                	mov    edx,eax
  400bd2:	48 8b 45 d0          	mov    rax,QWORD PTR [rbp-0x30]
  400bd6:	48 01 d0             	add    rax,rdx
  400bd9:	8b 55 e8             	mov    edx,DWORD PTR [rbp-0x18]
  400bdc:	c1 e2 02             	shl    edx,0x2
  400bdf:	83 c2 03             	add    edx,0x3
  400be2:	89 d1                	mov    ecx,edx
  400be4:	48 8b 55 d8          	mov    rdx,QWORD PTR [rbp-0x28]
  400be8:	48 01 ca             	add    rdx,rcx
  400beb:	0f b6 00             	movzx  eax,BYTE PTR [rax]
  400bee:	88 02                	mov    BYTE PTR [rdx],al
  400bf0:	83 45 e8 01          	add    DWORD PTR [rbp-0x18],0x1
  400bf4:	83 7d e8 03          	cmp    DWORD PTR [rbp-0x18],0x3
  400bf8:	0f 86 54 ff ff ff    	jbe    400b52 <exit@plt+0x462>
  400bfe:	c7 45 e8 04 00 00 00 	mov    DWORD PTR [rbp-0x18],0x4
  400c05:	e9 c3 01 00 00       	jmp    400dcd <exit@plt+0x6dd>
  400c0a:	8b 45 e8             	mov    eax,DWORD PTR [rbp-0x18]
  400c0d:	05 ff ff ff 3f       	add    eax,0x3fffffff
  400c12:	c1 e0 02             	shl    eax,0x2
  400c15:	89 45 ec             	mov    DWORD PTR [rbp-0x14],eax
  400c18:	8b 55 ec             	mov    edx,DWORD PTR [rbp-0x14]
  400c1b:	48 8b 45 d8          	mov    rax,QWORD PTR [rbp-0x28]
  400c1f:	48 01 d0             	add    rax,rdx
  400c22:	0f b6 00             	movzx  eax,BYTE PTR [rax]
  400c25:	88 45 f4             	mov    BYTE PTR [rbp-0xc],al
  400c28:	8b 45 ec             	mov    eax,DWORD PTR [rbp-0x14]
  400c2b:	83 c0 01             	add    eax,0x1
  400c2e:	89 c2                	mov    edx,eax
  400c30:	48 8b 45 d8          	mov    rax,QWORD PTR [rbp-0x28]
  400c34:	48 01 d0             	add    rax,rdx
  400c37:	0f b6 00             	movzx  eax,BYTE PTR [rax]
  400c3a:	88 45 f5             	mov    BYTE PTR [rbp-0xb],al
  400c3d:	8b 45 ec             	mov    eax,DWORD PTR [rbp-0x14]
  400c40:	83 c0 02             	add    eax,0x2
  400c43:	89 c2                	mov    edx,eax
  400c45:	48 8b 45 d8          	mov    rax,QWORD PTR [rbp-0x28]
  400c49:	48 01 d0             	add    rax,rdx
  400c4c:	0f b6 00             	movzx  eax,BYTE PTR [rax]
  400c4f:	88 45 f6             	mov    BYTE PTR [rbp-0xa],al
  400c52:	8b 45 ec             	mov    eax,DWORD PTR [rbp-0x14]
  400c55:	83 c0 03             	add    eax,0x3
  400c58:	89 c2                	mov    edx,eax
  400c5a:	48 8b 45 d8          	mov    rax,QWORD PTR [rbp-0x28]
  400c5e:	48 01 d0             	add    rax,rdx
  400c61:	0f b6 00             	movzx  eax,BYTE PTR [rax]
  400c64:	88 45 f7             	mov    BYTE PTR [rbp-0x9],al
  400c67:	8b 45 e8             	mov    eax,DWORD PTR [rbp-0x18]
  400c6a:	83 e0 03             	and    eax,0x3
  400c6d:	85 c0                	test   eax,eax
  400c6f:	0f 85 a1 00 00 00    	jne    400d16 <exit@plt+0x626>
  400c75:	0f b6 45 f4          	movzx  eax,BYTE PTR [rbp-0xc]
  400c79:	0f b6 c0             	movzx  eax,al
  400c7c:	89 45 ec             	mov    DWORD PTR [rbp-0x14],eax
  400c7f:	0f b6 45 f5          	movzx  eax,BYTE PTR [rbp-0xb]
  400c83:	88 45 f4             	mov    BYTE PTR [rbp-0xc],al
  400c86:	0f b6 45 f6          	movzx  eax,BYTE PTR [rbp-0xa]
  400c8a:	88 45 f5             	mov    BYTE PTR [rbp-0xb],al
  400c8d:	0f b6 45 f7          	movzx  eax,BYTE PTR [rbp-0x9]
  400c91:	88 45 f6             	mov    BYTE PTR [rbp-0xa],al
  400c94:	8b 45 ec             	mov    eax,DWORD PTR [rbp-0x14]
  400c97:	88 45 f7             	mov    BYTE PTR [rbp-0x9],al
  400c9a:	0f b6 45 f4          	movzx  eax,BYTE PTR [rbp-0xc]
  400c9e:	0f b6 c0             	movzx  eax,al
  400ca1:	48 63 d0             	movsxd rdx,eax
  400ca4:	48 8d 05 55 14 00 00 	lea    rax,[rip+0x1455]        # 402100 <exit@plt+0x1a10>
  400cab:	0f b6 04 02          	movzx  eax,BYTE PTR [rdx+rax*1]
  400caf:	88 45 f4             	mov    BYTE PTR [rbp-0xc],al
  400cb2:	0f b6 45 f5          	movzx  eax,BYTE PTR [rbp-0xb]
  400cb6:	0f b6 c0             	movzx  eax,al
  400cb9:	48 63 d0             	movsxd rdx,eax
  400cbc:	48 8d 05 3d 14 00 00 	lea    rax,[rip+0x143d]        # 402100 <exit@plt+0x1a10>
  400cc3:	0f b6 04 02          	movzx  eax,BYTE PTR [rdx+rax*1]
  400cc7:	88 45 f5             	mov    BYTE PTR [rbp-0xb],al
  400cca:	0f b6 45 f6          	movzx  eax,BYTE PTR [rbp-0xa]
  400cce:	0f b6 c0             	movzx  eax,al
  400cd1:	48 63 d0             	movsxd rdx,eax
  400cd4:	48 8d 05 25 14 00 00 	lea    rax,[rip+0x1425]        # 402100 <exit@plt+0x1a10>
  400cdb:	0f b6 04 02          	movzx  eax,BYTE PTR [rdx+rax*1]
  400cdf:	88 45 f6             	mov    BYTE PTR [rbp-0xa],al
  400ce2:	0f b6 45 f7          	movzx  eax,BYTE PTR [rbp-0x9]
  400ce6:	0f b6 c0             	movzx  eax,al
  400ce9:	48 63 d0             	movsxd rdx,eax
  400cec:	48 8d 05 0d 14 00 00 	lea    rax,[rip+0x140d]        # 402100 <exit@plt+0x1a10>
  400cf3:	0f b6 04 02          	movzx  eax,BYTE PTR [rdx+rax*1]
  400cf7:	88 45 f7             	mov    BYTE PTR [rbp-0x9],al
  400cfa:	0f b6 55 f4          	movzx  edx,BYTE PTR [rbp-0xc]
  400cfe:	8b 45 e8             	mov    eax,DWORD PTR [rbp-0x18]
  400d01:	c1 e8 02             	shr    eax,0x2
  400d04:	89 c1                	mov    ecx,eax
  400d06:	48 8d 05 f3 15 00 00 	lea    rax,[rip+0x15f3]        # 402300 <exit@plt+0x1c10>
  400d0d:	0f b6 04 01          	movzx  eax,BYTE PTR [rcx+rax*1]
  400d11:	31 d0                	xor    eax,edx
  400d13:	88 45 f4             	mov    BYTE PTR [rbp-0xc],al
  400d16:	8b 45 e8             	mov    eax,DWORD PTR [rbp-0x18]
  400d19:	c1 e0 02             	shl    eax,0x2
  400d1c:	89 45 f0             	mov    DWORD PTR [rbp-0x10],eax
  400d1f:	8b 45 e8             	mov    eax,DWORD PTR [rbp-0x18]
  400d22:	05 fc ff ff 3f       	add    eax,0x3ffffffc
  400d27:	c1 e0 02             	shl    eax,0x2
  400d2a:	89 45 ec             	mov    DWORD PTR [rbp-0x14],eax
  400d2d:	8b 55 ec             	mov    edx,DWORD PTR [rbp-0x14]
  400d30:	48 8b 45 d8          	mov    rax,QWORD PTR [rbp-0x28]
  400d34:	48 01 d0             	add    rax,rdx
  400d37:	0f b6 30             	movzx  esi,BYTE PTR [rax]
  400d3a:	0f b6 4d f4          	movzx  ecx,BYTE PTR [rbp-0xc]
  400d3e:	8b 55 f0             	mov    edx,DWORD PTR [rbp-0x10]
  400d41:	48 8b 45 d8          	mov    rax,QWORD PTR [rbp-0x28]
  400d45:	48 01 d0             	add    rax,rdx
  400d48:	31 ce                	xor    esi,ecx
  400d4a:	89 f2                	mov    edx,esi
  400d4c:	88 10                	mov    BYTE PTR [rax],dl
  400d4e:	8b 45 ec             	mov    eax,DWORD PTR [rbp-0x14]
  400d51:	83 c0 01             	add    eax,0x1
  400d54:	89 c2                	mov    edx,eax
  400d56:	48 8b 45 d8          	mov    rax,QWORD PTR [rbp-0x28]
  400d5a:	48 01 d0             	add    rax,rdx
  400d5d:	0f b6 08             	movzx  ecx,BYTE PTR [rax]
  400d60:	0f b6 55 f5          	movzx  edx,BYTE PTR [rbp-0xb]
  400d64:	8b 45 f0             	mov    eax,DWORD PTR [rbp-0x10]
  400d67:	83 c0 01             	add    eax,0x1
  400d6a:	89 c6                	mov    esi,eax
  400d6c:	48 8b 45 d8          	mov    rax,QWORD PTR [rbp-0x28]
  400d70:	48 01 f0             	add    rax,rsi
  400d73:	31 ca                	xor    edx,ecx
  400d75:	88 10                	mov    BYTE PTR [rax],dl
  400d77:	8b 45 ec             	mov    eax,DWORD PTR [rbp-0x14]
  400d7a:	83 c0 02             	add    eax,0x2
  400d7d:	89 c2                	mov    edx,eax
  400d7f:	48 8b 45 d8          	mov    rax,QWORD PTR [rbp-0x28]
  400d83:	48 01 d0             	add    rax,rdx
  400d86:	0f b6 08             	movzx  ecx,BYTE PTR [rax]
  400d89:	0f b6 55 f6          	movzx  edx,BYTE PTR [rbp-0xa]
  400d8d:	8b 45 f0             	mov    eax,DWORD PTR [rbp-0x10]
  400d90:	83 c0 02             	add    eax,0x2
  400d93:	89 c6                	mov    esi,eax
  400d95:	48 8b 45 d8          	mov    rax,QWORD PTR [rbp-0x28]
  400d99:	48 01 f0             	add    rax,rsi
  400d9c:	31 ca                	xor    edx,ecx
  400d9e:	88 10                	mov    BYTE PTR [rax],dl
  400da0:	8b 45 ec             	mov    eax,DWORD PTR [rbp-0x14]
  400da3:	83 c0 03             	add    eax,0x3
  400da6:	89 c2                	mov    edx,eax
  400da8:	48 8b 45 d8          	mov    rax,QWORD PTR [rbp-0x28]
  400dac:	48 01 d0             	add    rax,rdx
  400daf:	0f b6 08             	movzx  ecx,BYTE PTR [rax]
  400db2:	0f b6 55 f7          	movzx  edx,BYTE PTR [rbp-0x9]
  400db6:	8b 45 f0             	mov    eax,DWORD PTR [rbp-0x10]
  400db9:	83 c0 03             	add    eax,0x3
  400dbc:	89 c6                	mov    esi,eax
  400dbe:	48 8b 45 d8          	mov    rax,QWORD PTR [rbp-0x28]
  400dc2:	48 01 f0             	add    rax,rsi
  400dc5:	31 ca                	xor    edx,ecx
  400dc7:	88 10                	mov    BYTE PTR [rax],dl
  400dc9:	83 45 e8 01          	add    DWORD PTR [rbp-0x18],0x1
  400dcd:	83 7d e8 2b          	cmp    DWORD PTR [rbp-0x18],0x2b
  400dd1:	0f 86 33 fe ff ff    	jbe    400c0a <exit@plt+0x51a>
  400dd7:	90                   	nop
  400dd8:	48 8b 45 f8          	mov    rax,QWORD PTR [rbp-0x8]
  400ddc:	64 48 33 04 25 28 00 	xor    rax,QWORD PTR fs:0x28
  400de3:	00 00 
  400de5:	74 05                	je     400dec <exit@plt+0x6fc>
  400de7:	e8 94 f8 ff ff       	call   400680 <__stack_chk_fail@plt>
  400dec:	c9                   	leave  
  400ded:	c3                   	ret    
  400dee:	55                   	push   rbp
  400def:	48 89 e5             	mov    rbp,rsp
  400df2:	48 83 ec 10          	sub    rsp,0x10
  400df6:	48 89 7d f8          	mov    QWORD PTR [rbp-0x8],rdi
  400dfa:	48 89 75 f0          	mov    QWORD PTR [rbp-0x10],rsi
  400dfe:	48 8b 45 f8          	mov    rax,QWORD PTR [rbp-0x8]
  400e02:	48 8b 55 f0          	mov    rdx,QWORD PTR [rbp-0x10]
  400e06:	48 89 d6             	mov    rsi,rdx
  400e09:	48 89 c7             	mov    rdi,rax
  400e0c:	e8 16 fd ff ff       	call   400b27 <exit@plt+0x437>
  400e11:	90                   	nop
  400e12:	c9                   	leave  
  400e13:	c3                   	ret    
  400e14:	55                   	push   rbp
  400e15:	48 89 e5             	mov    rbp,rsp
  400e18:	48 83 ec 20          	sub    rsp,0x20
  400e1c:	48 89 7d f8          	mov    QWORD PTR [rbp-0x8],rdi
  400e20:	48 89 75 f0          	mov    QWORD PTR [rbp-0x10],rsi
  400e24:	48 89 55 e8          	mov    QWORD PTR [rbp-0x18],rdx
  400e28:	48 8b 45 f8          	mov    rax,QWORD PTR [rbp-0x8]
  400e2c:	48 8b 55 f0          	mov    rdx,QWORD PTR [rbp-0x10]
  400e30:	48 89 d6             	mov    rsi,rdx
  400e33:	48 89 c7             	mov    rdi,rax
  400e36:	e8 ec fc ff ff       	call   400b27 <exit@plt+0x437>
  400e3b:	48 8b 45 f8          	mov    rax,QWORD PTR [rbp-0x8]
  400e3f:	48 8d 88 b0 00 00 00 	lea    rcx,[rax+0xb0]
  400e46:	48 8b 45 e8          	mov    rax,QWORD PTR [rbp-0x18]
  400e4a:	48 8b 50 08          	mov    rdx,QWORD PTR [rax+0x8]
  400e4e:	48 8b 00             	mov    rax,QWORD PTR [rax]
  400e51:	48 89 01             	mov    QWORD PTR [rcx],rax
  400e54:	48 89 51 08          	mov    QWORD PTR [rcx+0x8],rdx
  400e58:	90                   	nop
  400e59:	c9                   	leave  
  400e5a:	c3                   	ret    
  400e5b:	55                   	push   rbp
  400e5c:	48 89 e5             	mov    rbp,rsp
  400e5f:	48 89 7d f8          	mov    QWORD PTR [rbp-0x8],rdi
  400e63:	48 89 75 f0          	mov    QWORD PTR [rbp-0x10],rsi
  400e67:	48 8b 45 f8          	mov    rax,QWORD PTR [rbp-0x8]
  400e6b:	48 8d 88 b0 00 00 00 	lea    rcx,[rax+0xb0]
  400e72:	48 8b 45 f0          	mov    rax,QWORD PTR [rbp-0x10]
  400e76:	48 8b 50 08          	mov    rdx,QWORD PTR [rax+0x8]
  400e7a:	48 8b 00             	mov    rax,QWORD PTR [rax]
  400e7d:	48 89 01             	mov    QWORD PTR [rcx],rax
  400e80:	48 89 51 08          	mov    QWORD PTR [rcx+0x8],rdx
  400e84:	90                   	nop
  400e85:	5d                   	pop    rbp
  400e86:	c3                   	ret    
  400e87:	55                   	push   rbp
  400e88:	48 89 e5             	mov    rbp,rsp
  400e8b:	89 f8                	mov    eax,edi
  400e8d:	48 89 75 e0          	mov    QWORD PTR [rbp-0x20],rsi
  400e91:	48 89 55 d8          	mov    QWORD PTR [rbp-0x28],rdx
  400e95:	88 45 ec             	mov    BYTE PTR [rbp-0x14],al
  400e98:	c6 45 fe 00          	mov    BYTE PTR [rbp-0x2],0x0
  400e9c:	eb 7d                	jmp    400f1b <exit@plt+0x82b>
  400e9e:	c6 45 ff 00          	mov    BYTE PTR [rbp-0x1],0x0
  400ea2:	eb 6d                	jmp    400f11 <exit@plt+0x821>
  400ea4:	0f b6 45 fe          	movzx  eax,BYTE PTR [rbp-0x2]
  400ea8:	0f b6 55 ff          	movzx  edx,BYTE PTR [rbp-0x1]
  400eac:	48 8b 4d e0          	mov    rcx,QWORD PTR [rbp-0x20]
  400eb0:	48 63 d2             	movsxd rdx,edx
  400eb3:	48 98                	cdqe   
  400eb5:	48 c1 e0 02          	shl    rax,0x2
  400eb9:	48 01 c8             	add    rax,rcx
  400ebc:	48 01 d0             	add    rax,rdx
  400ebf:	0f b6 30             	movzx  esi,BYTE PTR [rax]
  400ec2:	0f b6 45 ec          	movzx  eax,BYTE PTR [rbp-0x14]
  400ec6:	8d 14 85 00 00 00 00 	lea    edx,[rax*4+0x0]
  400ecd:	0f b6 45 fe          	movzx  eax,BYTE PTR [rbp-0x2]
  400ed1:	01 d0                	add    eax,edx
  400ed3:	8d 14 85 00 00 00 00 	lea    edx,[rax*4+0x0]
  400eda:	0f b6 45 ff          	movzx  eax,BYTE PTR [rbp-0x1]
  400ede:	01 d0                	add    eax,edx
  400ee0:	48 63 d0             	movsxd rdx,eax
  400ee3:	48 8b 45 d8          	mov    rax,QWORD PTR [rbp-0x28]
  400ee7:	48 01 d0             	add    rax,rdx
  400eea:	0f b6 08             	movzx  ecx,BYTE PTR [rax]
  400eed:	0f b6 45 fe          	movzx  eax,BYTE PTR [rbp-0x2]
  400ef1:	0f b6 55 ff          	movzx  edx,BYTE PTR [rbp-0x1]
  400ef5:	31 ce                	xor    esi,ecx
  400ef7:	48 8b 4d e0          	mov    rcx,QWORD PTR [rbp-0x20]
  400efb:	48 63 d2             	movsxd rdx,edx
  400efe:	48 98                	cdqe   
  400f00:	48 c1 e0 02          	shl    rax,0x2
  400f04:	48 01 c8             	add    rax,rcx
  400f07:	48 01 d0             	add    rax,rdx
  400f0a:	40 88 30             	mov    BYTE PTR [rax],sil
  400f0d:	80 45 ff 01          	add    BYTE PTR [rbp-0x1],0x1
  400f11:	80 7d ff 03          	cmp    BYTE PTR [rbp-0x1],0x3
  400f15:	76 8d                	jbe    400ea4 <exit@plt+0x7b4>
  400f17:	80 45 fe 01          	add    BYTE PTR [rbp-0x2],0x1
  400f1b:	80 7d fe 03          	cmp    BYTE PTR [rbp-0x2],0x3
  400f1f:	0f 86 79 ff ff ff    	jbe    400e9e <exit@plt+0x7ae>
  400f25:	90                   	nop
  400f26:	5d                   	pop    rbp
  400f27:	c3                   	ret    
  400f28:	55                   	push   rbp
  400f29:	48 89 e5             	mov    rbp,rsp
  400f2c:	48 89 7d e8          	mov    QWORD PTR [rbp-0x18],rdi
  400f30:	c6 45 fe 00          	mov    BYTE PTR [rbp-0x2],0x0
  400f34:	eb 61                	jmp    400f97 <exit@plt+0x8a7>
  400f36:	c6 45 ff 00          	mov    BYTE PTR [rbp-0x1],0x0
  400f3a:	eb 51                	jmp    400f8d <exit@plt+0x89d>
  400f3c:	0f b6 45 ff          	movzx  eax,BYTE PTR [rbp-0x1]
  400f40:	0f b6 55 fe          	movzx  edx,BYTE PTR [rbp-0x2]
  400f44:	48 8b 4d e8          	mov    rcx,QWORD PTR [rbp-0x18]
  400f48:	48 63 d2             	movsxd rdx,edx
  400f4b:	48 98                	cdqe   
  400f4d:	48 c1 e0 02          	shl    rax,0x2
  400f51:	48 01 c8             	add    rax,rcx
  400f54:	48 01 d0             	add    rax,rdx
  400f57:	0f b6 00             	movzx  eax,BYTE PTR [rax]
  400f5a:	0f b6 c0             	movzx  eax,al
  400f5d:	0f b6 7d ff          	movzx  edi,BYTE PTR [rbp-0x1]
  400f61:	0f b6 4d fe          	movzx  ecx,BYTE PTR [rbp-0x2]
  400f65:	48 63 d0             	movsxd rdx,eax
  400f68:	48 8d 05 91 11 00 00 	lea    rax,[rip+0x1191]        # 402100 <exit@plt+0x1a10>
  400f6f:	0f b6 14 02          	movzx  edx,BYTE PTR [rdx+rax*1]
  400f73:	48 8b 75 e8          	mov    rsi,QWORD PTR [rbp-0x18]
  400f77:	48 63 c9             	movsxd rcx,ecx
  400f7a:	48 63 c7             	movsxd rax,edi
  400f7d:	48 c1 e0 02          	shl    rax,0x2
  400f81:	48 01 f0             	add    rax,rsi
  400f84:	48 01 c8             	add    rax,rcx
  400f87:	88 10                	mov    BYTE PTR [rax],dl
  400f89:	80 45 ff 01          	add    BYTE PTR [rbp-0x1],0x1
  400f8d:	80 7d ff 03          	cmp    BYTE PTR [rbp-0x1],0x3
  400f91:	76 a9                	jbe    400f3c <exit@plt+0x84c>
  400f93:	80 45 fe 01          	add    BYTE PTR [rbp-0x2],0x1
  400f97:	80 7d fe 03          	cmp    BYTE PTR [rbp-0x2],0x3
  400f9b:	76 99                	jbe    400f36 <exit@plt+0x846>
  400f9d:	90                   	nop
  400f9e:	5d                   	pop    rbp
  400f9f:	c3                   	ret    
  400fa0:	55                   	push   rbp
  400fa1:	48 89 e5             	mov    rbp,rsp
  400fa4:	48 89 7d e8          	mov    QWORD PTR [rbp-0x18],rdi
  400fa8:	48 8b 45 e8          	mov    rax,QWORD PTR [rbp-0x18]
  400fac:	0f b6 40 01          	movzx  eax,BYTE PTR [rax+0x1]
  400fb0:	88 45 ff             	mov    BYTE PTR [rbp-0x1],al
  400fb3:	48 8b 45 e8          	mov    rax,QWORD PTR [rbp-0x18]
  400fb7:	0f b6 50 05          	movzx  edx,BYTE PTR [rax+0x5]
  400fbb:	48 8b 45 e8          	mov    rax,QWORD PTR [rbp-0x18]
  400fbf:	88 50 01             	mov    BYTE PTR [rax+0x1],dl
  400fc2:	48 8b 45 e8          	mov    rax,QWORD PTR [rbp-0x18]
  400fc6:	0f b6 50 09          	movzx  edx,BYTE PTR [rax+0x9]
  400fca:	48 8b 45 e8          	mov    rax,QWORD PTR [rbp-0x18]
  400fce:	88 50 05             	mov    BYTE PTR [rax+0x5],dl
  400fd1:	48 8b 45 e8          	mov    rax,QWORD PTR [rbp-0x18]
  400fd5:	0f b6 50 0d          	movzx  edx,BYTE PTR [rax+0xd]
  400fd9:	48 8b 45 e8          	mov    rax,QWORD PTR [rbp-0x18]
  400fdd:	88 50 09             	mov    BYTE PTR [rax+0x9],dl
  400fe0:	48 8b 45 e8          	mov    rax,QWORD PTR [rbp-0x18]
  400fe4:	0f b6 55 ff          	movzx  edx,BYTE PTR [rbp-0x1]
  400fe8:	88 50 0d             	mov    BYTE PTR [rax+0xd],dl
  400feb:	48 8b 45 e8          	mov    rax,QWORD PTR [rbp-0x18]
  400fef:	0f b6 40 02          	movzx  eax,BYTE PTR [rax+0x2]
  400ff3:	88 45 ff             	mov    BYTE PTR [rbp-0x1],al
  400ff6:	48 8b 45 e8          	mov    rax,QWORD PTR [rbp-0x18]
  400ffa:	0f b6 50 0a          	movzx  edx,BYTE PTR [rax+0xa]
  400ffe:	48 8b 45 e8          	mov    rax,QWORD PTR [rbp-0x18]
  401002:	88 50 02             	mov    BYTE PTR [rax+0x2],dl
  401005:	48 8b 45 e8          	mov    rax,QWORD PTR [rbp-0x18]
  401009:	0f b6 55 ff          	movzx  edx,BYTE PTR [rbp-0x1]
  40100d:	88 50 0a             	mov    BYTE PTR [rax+0xa],dl
  401010:	48 8b 45 e8          	mov    rax,QWORD PTR [rbp-0x18]
  401014:	0f b6 40 06          	movzx  eax,BYTE PTR [rax+0x6]
  401018:	88 45 ff             	mov    BYTE PTR [rbp-0x1],al
  40101b:	48 8b 45 e8          	mov    rax,QWORD PTR [rbp-0x18]
  40101f:	0f b6 50 0e          	movzx  edx,BYTE PTR [rax+0xe]
  401023:	48 8b 45 e8          	mov    rax,QWORD PTR [rbp-0x18]
  401027:	88 50 06             	mov    BYTE PTR [rax+0x6],dl
  40102a:	48 8b 45 e8          	mov    rax,QWORD PTR [rbp-0x18]
  40102e:	0f b6 55 ff          	movzx  edx,BYTE PTR [rbp-0x1]
  401032:	88 50 0e             	mov    BYTE PTR [rax+0xe],dl
  401035:	48 8b 45 e8          	mov    rax,QWORD PTR [rbp-0x18]
  401039:	0f b6 40 03          	movzx  eax,BYTE PTR [rax+0x3]
  40103d:	88 45 ff             	mov    BYTE PTR [rbp-0x1],al
  401040:	48 8b 45 e8          	mov    rax,QWORD PTR [rbp-0x18]
  401044:	0f b6 50 0f          	movzx  edx,BYTE PTR [rax+0xf]
  401048:	48 8b 45 e8          	mov    rax,QWORD PTR [rbp-0x18]
  40104c:	88 50 03             	mov    BYTE PTR [rax+0x3],dl
  40104f:	48 8b 45 e8          	mov    rax,QWORD PTR [rbp-0x18]
  401053:	0f b6 50 0b          	movzx  edx,BYTE PTR [rax+0xb]
  401057:	48 8b 45 e8          	mov    rax,QWORD PTR [rbp-0x18]
  40105b:	88 50 0f             	mov    BYTE PTR [rax+0xf],dl
  40105e:	48 8b 45 e8          	mov    rax,QWORD PTR [rbp-0x18]
  401062:	0f b6 50 07          	movzx  edx,BYTE PTR [rax+0x7]
  401066:	48 8b 45 e8          	mov    rax,QWORD PTR [rbp-0x18]
  40106a:	88 50 0b             	mov    BYTE PTR [rax+0xb],dl
  40106d:	48 8b 45 e8          	mov    rax,QWORD PTR [rbp-0x18]
  401071:	0f b6 55 ff          	movzx  edx,BYTE PTR [rbp-0x1]
  401075:	88 50 07             	mov    BYTE PTR [rax+0x7],dl
  401078:	90                   	nop
  401079:	5d                   	pop    rbp
  40107a:	c3                   	ret    
  40107b:	55                   	push   rbp
  40107c:	48 89 e5             	mov    rbp,rsp
  40107f:	89 f8                	mov    eax,edi
  401081:	88 45 fc             	mov    BYTE PTR [rbp-0x4],al
  401084:	0f b6 45 fc          	movzx  eax,BYTE PTR [rbp-0x4]
  401088:	01 c0                	add    eax,eax
  40108a:	89 c1                	mov    ecx,eax
  40108c:	0f b6 45 fc          	movzx  eax,BYTE PTR [rbp-0x4]
  401090:	c0 e8 07             	shr    al,0x7
  401093:	89 c2                	mov    edx,eax
  401095:	89 d0                	mov    eax,edx
  401097:	01 c0                	add    eax,eax
  401099:	01 d0                	add    eax,edx
  40109b:	8d 14 c5 00 00 00 00 	lea    edx,[rax*8+0x0]
  4010a2:	01 d0                	add    eax,edx
  4010a4:	31 c8                	xor    eax,ecx
  4010a6:	5d                   	pop    rbp
  4010a7:	c3                   	ret    
  4010a8:	55                   	push   rbp
  4010a9:	48 89 e5             	mov    rbp,rsp
  4010ac:	48 83 ec 18          	sub    rsp,0x18
  4010b0:	48 89 7d e8          	mov    QWORD PTR [rbp-0x18],rdi
  4010b4:	c6 45 fc 00          	mov    BYTE PTR [rbp-0x4],0x0
  4010b8:	e9 b8 01 00 00       	jmp    401275 <exit@plt+0xb85>
  4010bd:	0f b6 55 fc          	movzx  edx,BYTE PTR [rbp-0x4]
  4010c1:	48 8b 45 e8          	mov    rax,QWORD PTR [rbp-0x18]
  4010c5:	48 63 d2             	movsxd rdx,edx
  4010c8:	0f b6 04 90          	movzx  eax,BYTE PTR [rax+rdx*4]
  4010cc:	88 45 fd             	mov    BYTE PTR [rbp-0x3],al
  4010cf:	0f b6 55 fc          	movzx  edx,BYTE PTR [rbp-0x4]
  4010d3:	48 8b 45 e8          	mov    rax,QWORD PTR [rbp-0x18]
  4010d7:	48 63 d2             	movsxd rdx,edx
  4010da:	0f b6 0c 90          	movzx  ecx,BYTE PTR [rax+rdx*4]
  4010de:	0f b6 55 fc          	movzx  edx,BYTE PTR [rbp-0x4]
  4010e2:	48 8b 45 e8          	mov    rax,QWORD PTR [rbp-0x18]
  4010e6:	48 63 d2             	movsxd rdx,edx
  4010e9:	0f b6 44 90 01       	movzx  eax,BYTE PTR [rax+rdx*4+0x1]
  4010ee:	31 c1                	xor    ecx,eax
  4010f0:	0f b6 55 fc          	movzx  edx,BYTE PTR [rbp-0x4]
  4010f4:	48 8b 45 e8          	mov    rax,QWORD PTR [rbp-0x18]
  4010f8:	48 63 d2             	movsxd rdx,edx
  4010fb:	0f b6 44 90 02       	movzx  eax,BYTE PTR [rax+rdx*4+0x2]
  401100:	31 c1                	xor    ecx,eax
  401102:	0f b6 55 fc          	movzx  edx,BYTE PTR [rbp-0x4]
  401106:	48 8b 45 e8          	mov    rax,QWORD PTR [rbp-0x18]
  40110a:	48 63 d2             	movsxd rdx,edx
  40110d:	0f b6 44 90 03       	movzx  eax,BYTE PTR [rax+rdx*4+0x3]
  401112:	31 c8                	xor    eax,ecx
  401114:	88 45 fe             	mov    BYTE PTR [rbp-0x2],al
  401117:	0f b6 55 fc          	movzx  edx,BYTE PTR [rbp-0x4]
  40111b:	48 8b 45 e8          	mov    rax,QWORD PTR [rbp-0x18]
  40111f:	48 63 d2             	movsxd rdx,edx
  401122:	0f b6 0c 90          	movzx  ecx,BYTE PTR [rax+rdx*4]
  401126:	0f b6 55 fc          	movzx  edx,BYTE PTR [rbp-0x4]
  40112a:	48 8b 45 e8          	mov    rax,QWORD PTR [rbp-0x18]
  40112e:	48 63 d2             	movsxd rdx,edx
  401131:	0f b6 44 90 01       	movzx  eax,BYTE PTR [rax+rdx*4+0x1]
  401136:	31 c8                	xor    eax,ecx
  401138:	88 45 ff             	mov    BYTE PTR [rbp-0x1],al
  40113b:	0f b6 45 ff          	movzx  eax,BYTE PTR [rbp-0x1]
  40113f:	89 c7                	mov    edi,eax
  401141:	e8 35 ff ff ff       	call   40107b <exit@plt+0x98b>
  401146:	88 45 ff             	mov    BYTE PTR [rbp-0x1],al
  401149:	0f b6 55 fc          	movzx  edx,BYTE PTR [rbp-0x4]
  40114d:	48 8b 45 e8          	mov    rax,QWORD PTR [rbp-0x18]
  401151:	48 63 d2             	movsxd rdx,edx
  401154:	0f b6 0c 90          	movzx  ecx,BYTE PTR [rax+rdx*4]
  401158:	0f b6 45 ff          	movzx  eax,BYTE PTR [rbp-0x1]
  40115c:	32 45 fe             	xor    al,BYTE PTR [rbp-0x2]
  40115f:	0f b6 55 fc          	movzx  edx,BYTE PTR [rbp-0x4]
  401163:	31 c1                	xor    ecx,eax
  401165:	48 8b 45 e8          	mov    rax,QWORD PTR [rbp-0x18]
  401169:	48 63 d2             	movsxd rdx,edx
  40116c:	88 0c 90             	mov    BYTE PTR [rax+rdx*4],cl
  40116f:	0f b6 55 fc          	movzx  edx,BYTE PTR [rbp-0x4]
  401173:	48 8b 45 e8          	mov    rax,QWORD PTR [rbp-0x18]
  401177:	48 63 d2             	movsxd rdx,edx
  40117a:	0f b6 4c 90 01       	movzx  ecx,BYTE PTR [rax+rdx*4+0x1]
  40117f:	0f b6 55 fc          	movzx  edx,BYTE PTR [rbp-0x4]
  401183:	48 8b 45 e8          	mov    rax,QWORD PTR [rbp-0x18]
  401187:	48 63 d2             	movsxd rdx,edx
  40118a:	0f b6 44 90 02       	movzx  eax,BYTE PTR [rax+rdx*4+0x2]
  40118f:	31 c8                	xor    eax,ecx
  401191:	88 45 ff             	mov    BYTE PTR [rbp-0x1],al
  401194:	0f b6 45 ff          	movzx  eax,BYTE PTR [rbp-0x1]
  401198:	89 c7                	mov    edi,eax
  40119a:	e8 dc fe ff ff       	call   40107b <exit@plt+0x98b>
  40119f:	88 45 ff             	mov    BYTE PTR [rbp-0x1],al
  4011a2:	0f b6 55 fc          	movzx  edx,BYTE PTR [rbp-0x4]
  4011a6:	48 8b 45 e8          	mov    rax,QWORD PTR [rbp-0x18]
  4011aa:	48 63 d2             	movsxd rdx,edx
  4011ad:	0f b6 4c 90 01       	movzx  ecx,BYTE PTR [rax+rdx*4+0x1]
  4011b2:	0f b6 45 ff          	movzx  eax,BYTE PTR [rbp-0x1]
  4011b6:	32 45 fe             	xor    al,BYTE PTR [rbp-0x2]
  4011b9:	0f b6 55 fc          	movzx  edx,BYTE PTR [rbp-0x4]
  4011bd:	31 c1                	xor    ecx,eax
  4011bf:	48 8b 45 e8          	mov    rax,QWORD PTR [rbp-0x18]
  4011c3:	48 63 d2             	movsxd rdx,edx
  4011c6:	88 4c 90 01          	mov    BYTE PTR [rax+rdx*4+0x1],cl
  4011ca:	0f b6 55 fc          	movzx  edx,BYTE PTR [rbp-0x4]
  4011ce:	48 8b 45 e8          	mov    rax,QWORD PTR [rbp-0x18]
  4011d2:	48 63 d2             	movsxd rdx,edx
  4011d5:	0f b6 4c 90 02       	movzx  ecx,BYTE PTR [rax+rdx*4+0x2]
  4011da:	0f b6 55 fc          	movzx  edx,BYTE PTR [rbp-0x4]
  4011de:	48 8b 45 e8          	mov    rax,QWORD PTR [rbp-0x18]
  4011e2:	48 63 d2             	movsxd rdx,edx
  4011e5:	0f b6 44 90 03       	movzx  eax,BYTE PTR [rax+rdx*4+0x3]
  4011ea:	31 c8                	xor    eax,ecx
  4011ec:	88 45 ff             	mov    BYTE PTR [rbp-0x1],al
  4011ef:	0f b6 45 ff          	movzx  eax,BYTE PTR [rbp-0x1]
  4011f3:	89 c7                	mov    edi,eax
  4011f5:	e8 81 fe ff ff       	call   40107b <exit@plt+0x98b>
  4011fa:	88 45 ff             	mov    BYTE PTR [rbp-0x1],al
  4011fd:	0f b6 55 fc          	movzx  edx,BYTE PTR [rbp-0x4]
  401201:	48 8b 45 e8          	mov    rax,QWORD PTR [rbp-0x18]
  401205:	48 63 d2             	movsxd rdx,edx
  401208:	0f b6 4c 90 02       	movzx  ecx,BYTE PTR [rax+rdx*4+0x2]
  40120d:	0f b6 45 ff          	movzx  eax,BYTE PTR [rbp-0x1]
  401211:	32 45 fe             	xor    al,BYTE PTR [rbp-0x2]
  401214:	0f b6 55 fc          	movzx  edx,BYTE PTR [rbp-0x4]
  401218:	31 c1                	xor    ecx,eax
  40121a:	48 8b 45 e8          	mov    rax,QWORD PTR [rbp-0x18]
  40121e:	48 63 d2             	movsxd rdx,edx
  401221:	88 4c 90 02          	mov    BYTE PTR [rax+rdx*4+0x2],cl
  401225:	0f b6 55 fc          	movzx  edx,BYTE PTR [rbp-0x4]
  401229:	48 8b 45 e8          	mov    rax,QWORD PTR [rbp-0x18]
  40122d:	48 63 d2             	movsxd rdx,edx
  401230:	0f b6 44 90 03       	movzx  eax,BYTE PTR [rax+rdx*4+0x3]
  401235:	32 45 fd             	xor    al,BYTE PTR [rbp-0x3]
  401238:	88 45 ff             	mov    BYTE PTR [rbp-0x1],al
  40123b:	0f b6 45 ff          	movzx  eax,BYTE PTR [rbp-0x1]
  40123f:	89 c7                	mov    edi,eax
  401241:	e8 35 fe ff ff       	call   40107b <exit@plt+0x98b>
  401246:	88 45 ff             	mov    BYTE PTR [rbp-0x1],al
  401249:	0f b6 55 fc          	movzx  edx,BYTE PTR [rbp-0x4]
  40124d:	48 8b 45 e8          	mov    rax,QWORD PTR [rbp-0x18]
  401251:	48 63 d2             	movsxd rdx,edx
  401254:	0f b6 4c 90 03       	movzx  ecx,BYTE PTR [rax+rdx*4+0x3]
  401259:	0f b6 45 ff          	movzx  eax,BYTE PTR [rbp-0x1]
  40125d:	32 45 fe             	xor    al,BYTE PTR [rbp-0x2]
  401260:	0f b6 55 fc          	movzx  edx,BYTE PTR [rbp-0x4]
  401264:	31 c1                	xor    ecx,eax
  401266:	48 8b 45 e8          	mov    rax,QWORD PTR [rbp-0x18]
  40126a:	48 63 d2             	movsxd rdx,edx
  40126d:	88 4c 90 03          	mov    BYTE PTR [rax+rdx*4+0x3],cl
  401271:	80 45 fc 01          	add    BYTE PTR [rbp-0x4],0x1
  401275:	80 7d fc 03          	cmp    BYTE PTR [rbp-0x4],0x3
  401279:	0f 86 3e fe ff ff    	jbe    4010bd <exit@plt+0x9cd>
  40127f:	90                   	nop
  401280:	c9                   	leave  
  401281:	c3                   	ret    
  401282:	55                   	push   rbp
  401283:	48 89 e5             	mov    rbp,rsp
  401286:	41 54                	push   r12
  401288:	53                   	push   rbx
  401289:	48 83 ec 18          	sub    rsp,0x18
  40128d:	48 89 7d d8          	mov    QWORD PTR [rbp-0x28],rdi
  401291:	c7 45 ec 00 00 00 00 	mov    DWORD PTR [rbp-0x14],0x0
  401298:	e9 9e 07 00 00       	jmp    401a3b <exit@plt+0x134b>
  40129d:	48 8b 45 d8          	mov    rax,QWORD PTR [rbp-0x28]
  4012a1:	8b 55 ec             	mov    edx,DWORD PTR [rbp-0x14]
  4012a4:	48 63 d2             	movsxd rdx,edx
  4012a7:	0f b6 04 90          	movzx  eax,BYTE PTR [rax+rdx*4]
  4012ab:	88 45 e8             	mov    BYTE PTR [rbp-0x18],al
  4012ae:	48 8b 45 d8          	mov    rax,QWORD PTR [rbp-0x28]
  4012b2:	8b 55 ec             	mov    edx,DWORD PTR [rbp-0x14]
  4012b5:	48 63 d2             	movsxd rdx,edx
  4012b8:	0f b6 44 90 01       	movzx  eax,BYTE PTR [rax+rdx*4+0x1]
  4012bd:	88 45 e9             	mov    BYTE PTR [rbp-0x17],al
  4012c0:	48 8b 45 d8          	mov    rax,QWORD PTR [rbp-0x28]
  4012c4:	8b 55 ec             	mov    edx,DWORD PTR [rbp-0x14]
  4012c7:	48 63 d2             	movsxd rdx,edx
  4012ca:	0f b6 44 90 02       	movzx  eax,BYTE PTR [rax+rdx*4+0x2]
  4012cf:	88 45 ea             	mov    BYTE PTR [rbp-0x16],al
  4012d2:	48 8b 45 d8          	mov    rax,QWORD PTR [rbp-0x28]
  4012d6:	8b 55 ec             	mov    edx,DWORD PTR [rbp-0x14]
  4012d9:	48 63 d2             	movsxd rdx,edx
  4012dc:	0f b6 44 90 03       	movzx  eax,BYTE PTR [rax+rdx*4+0x3]
  4012e1:	88 45 eb             	mov    BYTE PTR [rbp-0x15],al
  4012e4:	0f b6 45 e8          	movzx  eax,BYTE PTR [rbp-0x18]
  4012e8:	89 c7                	mov    edi,eax
  4012ea:	e8 8c fd ff ff       	call   40107b <exit@plt+0x98b>
  4012ef:	0f b6 c0             	movzx  eax,al
  4012f2:	89 c7                	mov    edi,eax
  4012f4:	e8 82 fd ff ff       	call   40107b <exit@plt+0x98b>
  4012f9:	0f b6 c0             	movzx  eax,al
  4012fc:	89 c7                	mov    edi,eax
  4012fe:	e8 78 fd ff ff       	call   40107b <exit@plt+0x98b>
  401303:	0f b6 c0             	movzx  eax,al
  401306:	89 c7                	mov    edi,eax
  401308:	e8 6e fd ff ff       	call   40107b <exit@plt+0x98b>
  40130d:	0f b6 45 e9          	movzx  eax,BYTE PTR [rbp-0x17]
  401311:	89 c7                	mov    edi,eax
  401313:	e8 63 fd ff ff       	call   40107b <exit@plt+0x98b>
  401318:	0f b6 c0             	movzx  eax,al
  40131b:	89 c7                	mov    edi,eax
  40131d:	e8 59 fd ff ff       	call   40107b <exit@plt+0x98b>
  401322:	0f b6 45 e9          	movzx  eax,BYTE PTR [rbp-0x17]
  401326:	89 c7                	mov    edi,eax
  401328:	e8 4e fd ff ff       	call   40107b <exit@plt+0x98b>
  40132d:	0f b6 c0             	movzx  eax,al
  401330:	89 c7                	mov    edi,eax
  401332:	e8 44 fd ff ff       	call   40107b <exit@plt+0x98b>
  401337:	0f b6 c0             	movzx  eax,al
  40133a:	89 c7                	mov    edi,eax
  40133c:	e8 3a fd ff ff       	call   40107b <exit@plt+0x98b>
  401341:	0f b6 c0             	movzx  eax,al
  401344:	89 c7                	mov    edi,eax
  401346:	e8 30 fd ff ff       	call   40107b <exit@plt+0x98b>
  40134b:	0f b6 45 ea          	movzx  eax,BYTE PTR [rbp-0x16]
  40134f:	89 c7                	mov    edi,eax
  401351:	e8 25 fd ff ff       	call   40107b <exit@plt+0x98b>
  401356:	0f b6 45 ea          	movzx  eax,BYTE PTR [rbp-0x16]
  40135a:	89 c7                	mov    edi,eax
  40135c:	e8 1a fd ff ff       	call   40107b <exit@plt+0x98b>
  401361:	0f b6 c0             	movzx  eax,al
  401364:	89 c7                	mov    edi,eax
  401366:	e8 10 fd ff ff       	call   40107b <exit@plt+0x98b>
  40136b:	0f b6 c0             	movzx  eax,al
  40136e:	89 c7                	mov    edi,eax
  401370:	e8 06 fd ff ff       	call   40107b <exit@plt+0x98b>
  401375:	0f b6 c0             	movzx  eax,al
  401378:	89 c7                	mov    edi,eax
  40137a:	e8 fc fc ff ff       	call   40107b <exit@plt+0x98b>
  40137f:	0f b6 45 eb          	movzx  eax,BYTE PTR [rbp-0x15]
  401383:	89 c7                	mov    edi,eax
  401385:	e8 f1 fc ff ff       	call   40107b <exit@plt+0x98b>
  40138a:	0f b6 45 eb          	movzx  eax,BYTE PTR [rbp-0x15]
  40138e:	89 c7                	mov    edi,eax
  401390:	e8 e6 fc ff ff       	call   40107b <exit@plt+0x98b>
  401395:	0f b6 c0             	movzx  eax,al
  401398:	89 c7                	mov    edi,eax
  40139a:	e8 dc fc ff ff       	call   40107b <exit@plt+0x98b>
  40139f:	0f b6 45 eb          	movzx  eax,BYTE PTR [rbp-0x15]
  4013a3:	89 c7                	mov    edi,eax
  4013a5:	e8 d1 fc ff ff       	call   40107b <exit@plt+0x98b>
  4013aa:	0f b6 c0             	movzx  eax,al
  4013ad:	89 c7                	mov    edi,eax
  4013af:	e8 c7 fc ff ff       	call   40107b <exit@plt+0x98b>
  4013b4:	0f b6 c0             	movzx  eax,al
  4013b7:	89 c7                	mov    edi,eax
  4013b9:	e8 bd fc ff ff       	call   40107b <exit@plt+0x98b>
  4013be:	0f b6 c0             	movzx  eax,al
  4013c1:	89 c7                	mov    edi,eax
  4013c3:	e8 b3 fc ff ff       	call   40107b <exit@plt+0x98b>
  4013c8:	0f b6 45 e8          	movzx  eax,BYTE PTR [rbp-0x18]
  4013cc:	89 c7                	mov    edi,eax
  4013ce:	e8 a8 fc ff ff       	call   40107b <exit@plt+0x98b>
  4013d3:	89 c3                	mov    ebx,eax
  4013d5:	0f b6 45 e8          	movzx  eax,BYTE PTR [rbp-0x18]
  4013d9:	89 c7                	mov    edi,eax
  4013db:	e8 9b fc ff ff       	call   40107b <exit@plt+0x98b>
  4013e0:	0f b6 c0             	movzx  eax,al
  4013e3:	89 c7                	mov    edi,eax
  4013e5:	e8 91 fc ff ff       	call   40107b <exit@plt+0x98b>
  4013ea:	31 c3                	xor    ebx,eax
  4013ec:	0f b6 45 e8          	movzx  eax,BYTE PTR [rbp-0x18]
  4013f0:	89 c7                	mov    edi,eax
  4013f2:	e8 84 fc ff ff       	call   40107b <exit@plt+0x98b>
  4013f7:	0f b6 c0             	movzx  eax,al
  4013fa:	89 c7                	mov    edi,eax
  4013fc:	e8 7a fc ff ff       	call   40107b <exit@plt+0x98b>
  401401:	0f b6 c0             	movzx  eax,al
  401404:	89 c7                	mov    edi,eax
  401406:	e8 70 fc ff ff       	call   40107b <exit@plt+0x98b>
  40140b:	31 c3                	xor    ebx,eax
  40140d:	41 89 dc             	mov    r12d,ebx
  401410:	0f b6 45 e9          	movzx  eax,BYTE PTR [rbp-0x17]
  401414:	89 c7                	mov    edi,eax
  401416:	e8 60 fc ff ff       	call   40107b <exit@plt+0x98b>
  40141b:	32 45 e9             	xor    al,BYTE PTR [rbp-0x17]
  40141e:	89 c3                	mov    ebx,eax
  401420:	0f b6 45 e9          	movzx  eax,BYTE PTR [rbp-0x17]
  401424:	89 c7                	mov    edi,eax
  401426:	e8 50 fc ff ff       	call   40107b <exit@plt+0x98b>
  40142b:	0f b6 c0             	movzx  eax,al
  40142e:	89 c7                	mov    edi,eax
  401430:	e8 46 fc ff ff       	call   40107b <exit@plt+0x98b>
  401435:	0f b6 c0             	movzx  eax,al
  401438:	89 c7                	mov    edi,eax
  40143a:	e8 3c fc ff ff       	call   40107b <exit@plt+0x98b>
  40143f:	31 d8                	xor    eax,ebx
  401441:	41 31 c4             	xor    r12d,eax
  401444:	0f b6 45 ea          	movzx  eax,BYTE PTR [rbp-0x16]
  401448:	89 c7                	mov    edi,eax
  40144a:	e8 2c fc ff ff       	call   40107b <exit@plt+0x98b>
  40144f:	0f b6 c0             	movzx  eax,al
  401452:	89 c7                	mov    edi,eax
  401454:	e8 22 fc ff ff       	call   40107b <exit@plt+0x98b>
  401459:	32 45 ea             	xor    al,BYTE PTR [rbp-0x16]
  40145c:	89 c3                	mov    ebx,eax
  40145e:	0f b6 45 ea          	movzx  eax,BYTE PTR [rbp-0x16]
  401462:	89 c7                	mov    edi,eax
  401464:	e8 12 fc ff ff       	call   40107b <exit@plt+0x98b>
  401469:	0f b6 c0             	movzx  eax,al
  40146c:	89 c7                	mov    edi,eax
  40146e:	e8 08 fc ff ff       	call   40107b <exit@plt+0x98b>
  401473:	0f b6 c0             	movzx  eax,al
  401476:	89 c7                	mov    edi,eax
  401478:	e8 fe fb ff ff       	call   40107b <exit@plt+0x98b>
  40147d:	31 d8                	xor    eax,ebx
  40147f:	44 89 e3             	mov    ebx,r12d
  401482:	31 c3                	xor    ebx,eax
  401484:	0f b6 45 eb          	movzx  eax,BYTE PTR [rbp-0x15]
  401488:	89 c7                	mov    edi,eax
  40148a:	e8 ec fb ff ff       	call   40107b <exit@plt+0x98b>
  40148f:	0f b6 c0             	movzx  eax,al
  401492:	89 c7                	mov    edi,eax
  401494:	e8 e2 fb ff ff       	call   40107b <exit@plt+0x98b>
  401499:	0f b6 c0             	movzx  eax,al
  40149c:	89 c7                	mov    edi,eax
  40149e:	e8 d8 fb ff ff       	call   40107b <exit@plt+0x98b>
  4014a3:	32 45 eb             	xor    al,BYTE PTR [rbp-0x15]
  4014a6:	89 d9                	mov    ecx,ebx
  4014a8:	31 c1                	xor    ecx,eax
  4014aa:	48 8b 45 d8          	mov    rax,QWORD PTR [rbp-0x28]
  4014ae:	8b 55 ec             	mov    edx,DWORD PTR [rbp-0x14]
  4014b1:	48 63 d2             	movsxd rdx,edx
  4014b4:	88 0c 90             	mov    BYTE PTR [rax+rdx*4],cl
  4014b7:	0f b6 45 e8          	movzx  eax,BYTE PTR [rbp-0x18]
  4014bb:	89 c7                	mov    edi,eax
  4014bd:	e8 b9 fb ff ff       	call   40107b <exit@plt+0x98b>
  4014c2:	0f b6 45 e8          	movzx  eax,BYTE PTR [rbp-0x18]
  4014c6:	89 c7                	mov    edi,eax
  4014c8:	e8 ae fb ff ff       	call   40107b <exit@plt+0x98b>
  4014cd:	0f b6 c0             	movzx  eax,al
  4014d0:	89 c7                	mov    edi,eax
  4014d2:	e8 a4 fb ff ff       	call   40107b <exit@plt+0x98b>
  4014d7:	0f b6 45 e8          	movzx  eax,BYTE PTR [rbp-0x18]
  4014db:	89 c7                	mov    edi,eax
  4014dd:	e8 99 fb ff ff       	call   40107b <exit@plt+0x98b>
  4014e2:	0f b6 c0             	movzx  eax,al
  4014e5:	89 c7                	mov    edi,eax
  4014e7:	e8 8f fb ff ff       	call   40107b <exit@plt+0x98b>
  4014ec:	0f b6 c0             	movzx  eax,al
  4014ef:	89 c7                	mov    edi,eax
  4014f1:	e8 85 fb ff ff       	call   40107b <exit@plt+0x98b>
  4014f6:	0f b6 c0             	movzx  eax,al
  4014f9:	89 c7                	mov    edi,eax
  4014fb:	e8 7b fb ff ff       	call   40107b <exit@plt+0x98b>
  401500:	0f b6 45 e9          	movzx  eax,BYTE PTR [rbp-0x17]
  401504:	89 c7                	mov    edi,eax
  401506:	e8 70 fb ff ff       	call   40107b <exit@plt+0x98b>
  40150b:	0f b6 c0             	movzx  eax,al
  40150e:	89 c7                	mov    edi,eax
  401510:	e8 66 fb ff ff       	call   40107b <exit@plt+0x98b>
  401515:	0f b6 c0             	movzx  eax,al
  401518:	89 c7                	mov    edi,eax
  40151a:	e8 5c fb ff ff       	call   40107b <exit@plt+0x98b>
  40151f:	0f b6 c0             	movzx  eax,al
  401522:	89 c7                	mov    edi,eax
  401524:	e8 52 fb ff ff       	call   40107b <exit@plt+0x98b>
  401529:	0f b6 45 ea          	movzx  eax,BYTE PTR [rbp-0x16]
  40152d:	89 c7                	mov    edi,eax
  40152f:	e8 47 fb ff ff       	call   40107b <exit@plt+0x98b>
  401534:	0f b6 c0             	movzx  eax,al
  401537:	89 c7                	mov    edi,eax
  401539:	e8 3d fb ff ff       	call   40107b <exit@plt+0x98b>
  40153e:	0f b6 45 ea          	movzx  eax,BYTE PTR [rbp-0x16]
  401542:	89 c7                	mov    edi,eax
  401544:	e8 32 fb ff ff       	call   40107b <exit@plt+0x98b>
  401549:	0f b6 c0             	movzx  eax,al
  40154c:	89 c7                	mov    edi,eax
  40154e:	e8 28 fb ff ff       	call   40107b <exit@plt+0x98b>
  401553:	0f b6 c0             	movzx  eax,al
  401556:	89 c7                	mov    edi,eax
  401558:	e8 1e fb ff ff       	call   40107b <exit@plt+0x98b>
  40155d:	0f b6 c0             	movzx  eax,al
  401560:	89 c7                	mov    edi,eax
  401562:	e8 14 fb ff ff       	call   40107b <exit@plt+0x98b>
  401567:	0f b6 45 eb          	movzx  eax,BYTE PTR [rbp-0x15]
  40156b:	89 c7                	mov    edi,eax
  40156d:	e8 09 fb ff ff       	call   40107b <exit@plt+0x98b>
  401572:	0f b6 45 eb          	movzx  eax,BYTE PTR [rbp-0x15]
  401576:	89 c7                	mov    edi,eax
  401578:	e8 fe fa ff ff       	call   40107b <exit@plt+0x98b>
  40157d:	0f b6 c0             	movzx  eax,al
  401580:	89 c7                	mov    edi,eax
  401582:	e8 f4 fa ff ff       	call   40107b <exit@plt+0x98b>
  401587:	0f b6 c0             	movzx  eax,al
  40158a:	89 c7                	mov    edi,eax
  40158c:	e8 ea fa ff ff       	call   40107b <exit@plt+0x98b>
  401591:	0f b6 c0             	movzx  eax,al
  401594:	89 c7                	mov    edi,eax
  401596:	e8 e0 fa ff ff       	call   40107b <exit@plt+0x98b>
  40159b:	0f b6 45 e8          	movzx  eax,BYTE PTR [rbp-0x18]
  40159f:	89 c7                	mov    edi,eax
  4015a1:	e8 d5 fa ff ff       	call   40107b <exit@plt+0x98b>
  4015a6:	0f b6 c0             	movzx  eax,al
  4015a9:	89 c7                	mov    edi,eax
  4015ab:	e8 cb fa ff ff       	call   40107b <exit@plt+0x98b>
  4015b0:	0f b6 c0             	movzx  eax,al
  4015b3:	89 c7                	mov    edi,eax
  4015b5:	e8 c1 fa ff ff       	call   40107b <exit@plt+0x98b>
  4015ba:	32 45 e8             	xor    al,BYTE PTR [rbp-0x18]
  4015bd:	89 c3                	mov    ebx,eax
  4015bf:	0f b6 45 e9          	movzx  eax,BYTE PTR [rbp-0x17]
  4015c3:	89 c7                	mov    edi,eax
  4015c5:	e8 b1 fa ff ff       	call   40107b <exit@plt+0x98b>
  4015ca:	41 89 c4             	mov    r12d,eax
  4015cd:	0f b6 45 e9          	movzx  eax,BYTE PTR [rbp-0x17]
  4015d1:	89 c7                	mov    edi,eax
  4015d3:	e8 a3 fa ff ff       	call   40107b <exit@plt+0x98b>
  4015d8:	0f b6 c0             	movzx  eax,al
  4015db:	89 c7                	mov    edi,eax
  4015dd:	e8 99 fa ff ff       	call   40107b <exit@plt+0x98b>
  4015e2:	41 31 c4             	xor    r12d,eax
  4015e5:	0f b6 45 e9          	movzx  eax,BYTE PTR [rbp-0x17]
  4015e9:	89 c7                	mov    edi,eax
  4015eb:	e8 8b fa ff ff       	call   40107b <exit@plt+0x98b>
  4015f0:	0f b6 c0             	movzx  eax,al
  4015f3:	89 c7                	mov    edi,eax
  4015f5:	e8 81 fa ff ff       	call   40107b <exit@plt+0x98b>
  4015fa:	0f b6 c0             	movzx  eax,al
  4015fd:	89 c7                	mov    edi,eax
  4015ff:	e8 77 fa ff ff       	call   40107b <exit@plt+0x98b>
  401604:	44 31 e0             	xor    eax,r12d
  401607:	31 c3                	xor    ebx,eax
  401609:	41 89 dc             	mov    r12d,ebx
  40160c:	0f b6 45 ea          	movzx  eax,BYTE PTR [rbp-0x16]
  401610:	89 c7                	mov    edi,eax
  401612:	e8 64 fa ff ff       	call   40107b <exit@plt+0x98b>
  401617:	32 45 ea             	xor    al,BYTE PTR [rbp-0x16]
  40161a:	89 c3                	mov    ebx,eax
  40161c:	0f b6 45 ea          	movzx  eax,BYTE PTR [rbp-0x16]
  401620:	89 c7                	mov    edi,eax
  401622:	e8 54 fa ff ff       	call   40107b <exit@plt+0x98b>
  401627:	0f b6 c0             	movzx  eax,al
  40162a:	89 c7                	mov    edi,eax
  40162c:	e8 4a fa ff ff       	call   40107b <exit@plt+0x98b>
  401631:	0f b6 c0             	movzx  eax,al
  401634:	89 c7                	mov    edi,eax
  401636:	e8 40 fa ff ff       	call   40107b <exit@plt+0x98b>
  40163b:	31 d8                	xor    eax,ebx
  40163d:	41 31 c4             	xor    r12d,eax
  401640:	0f b6 45 eb          	movzx  eax,BYTE PTR [rbp-0x15]
  401644:	89 c7                	mov    edi,eax
  401646:	e8 30 fa ff ff       	call   40107b <exit@plt+0x98b>
  40164b:	0f b6 c0             	movzx  eax,al
  40164e:	89 c7                	mov    edi,eax
  401650:	e8 26 fa ff ff       	call   40107b <exit@plt+0x98b>
  401655:	32 45 eb             	xor    al,BYTE PTR [rbp-0x15]
  401658:	89 c3                	mov    ebx,eax
  40165a:	0f b6 45 eb          	movzx  eax,BYTE PTR [rbp-0x15]
  40165e:	89 c7                	mov    edi,eax
  401660:	e8 16 fa ff ff       	call   40107b <exit@plt+0x98b>
  401665:	0f b6 c0             	movzx  eax,al
  401668:	89 c7                	mov    edi,eax
  40166a:	e8 0c fa ff ff       	call   40107b <exit@plt+0x98b>
  40166f:	0f b6 c0             	movzx  eax,al
  401672:	89 c7                	mov    edi,eax
  401674:	e8 02 fa ff ff       	call   40107b <exit@plt+0x98b>
  401679:	31 d8                	xor    eax,ebx
  40167b:	44 89 e1             	mov    ecx,r12d
  40167e:	31 c1                	xor    ecx,eax
  401680:	48 8b 45 d8          	mov    rax,QWORD PTR [rbp-0x28]
  401684:	8b 55 ec             	mov    edx,DWORD PTR [rbp-0x14]
  401687:	48 63 d2             	movsxd rdx,edx
  40168a:	88 4c 90 01          	mov    BYTE PTR [rax+rdx*4+0x1],cl
  40168e:	0f b6 45 e8          	movzx  eax,BYTE PTR [rbp-0x18]
  401692:	89 c7                	mov    edi,eax
  401694:	e8 e2 f9 ff ff       	call   40107b <exit@plt+0x98b>
  401699:	0f b6 45 e8          	movzx  eax,BYTE PTR [rbp-0x18]
  40169d:	89 c7                	mov    edi,eax
  40169f:	e8 d7 f9 ff ff       	call   40107b <exit@plt+0x98b>
  4016a4:	0f b6 c0             	movzx  eax,al
  4016a7:	89 c7                	mov    edi,eax
  4016a9:	e8 cd f9 ff ff       	call   40107b <exit@plt+0x98b>
  4016ae:	0f b6 c0             	movzx  eax,al
  4016b1:	89 c7                	mov    edi,eax
  4016b3:	e8 c3 f9 ff ff       	call   40107b <exit@plt+0x98b>
  4016b8:	0f b6 c0             	movzx  eax,al
  4016bb:	89 c7                	mov    edi,eax
  4016bd:	e8 b9 f9 ff ff       	call   40107b <exit@plt+0x98b>
  4016c2:	0f b6 45 e9          	movzx  eax,BYTE PTR [rbp-0x17]
  4016c6:	89 c7                	mov    edi,eax
  4016c8:	e8 ae f9 ff ff       	call   40107b <exit@plt+0x98b>
  4016cd:	0f b6 45 e9          	movzx  eax,BYTE PTR [rbp-0x17]
  4016d1:	89 c7                	mov    edi,eax
  4016d3:	e8 a3 f9 ff ff       	call   40107b <exit@plt+0x98b>
  4016d8:	0f b6 c0             	movzx  eax,al
  4016db:	89 c7                	mov    edi,eax
  4016dd:	e8 99 f9 ff ff       	call   40107b <exit@plt+0x98b>
  4016e2:	0f b6 45 e9          	movzx  eax,BYTE PTR [rbp-0x17]
  4016e6:	89 c7                	mov    edi,eax
  4016e8:	e8 8e f9 ff ff       	call   40107b <exit@plt+0x98b>
  4016ed:	0f b6 c0             	movzx  eax,al
  4016f0:	89 c7                	mov    edi,eax
  4016f2:	e8 84 f9 ff ff       	call   40107b <exit@plt+0x98b>
  4016f7:	0f b6 c0             	movzx  eax,al
  4016fa:	89 c7                	mov    edi,eax
  4016fc:	e8 7a f9 ff ff       	call   40107b <exit@plt+0x98b>
  401701:	0f b6 c0             	movzx  eax,al
  401704:	89 c7                	mov    edi,eax
  401706:	e8 70 f9 ff ff       	call   40107b <exit@plt+0x98b>
  40170b:	0f b6 45 ea          	movzx  eax,BYTE PTR [rbp-0x16]
  40170f:	89 c7                	mov    edi,eax
  401711:	e8 65 f9 ff ff       	call   40107b <exit@plt+0x98b>
  401716:	0f b6 c0             	movzx  eax,al
  401719:	89 c7                	mov    edi,eax
  40171b:	e8 5b f9 ff ff       	call   40107b <exit@plt+0x98b>
  401720:	0f b6 c0             	movzx  eax,al
  401723:	89 c7                	mov    edi,eax
  401725:	e8 51 f9 ff ff       	call   40107b <exit@plt+0x98b>
  40172a:	0f b6 c0             	movzx  eax,al
  40172d:	89 c7                	mov    edi,eax
  40172f:	e8 47 f9 ff ff       	call   40107b <exit@plt+0x98b>
  401734:	0f b6 45 eb          	movzx  eax,BYTE PTR [rbp-0x15]
  401738:	89 c7                	mov    edi,eax
  40173a:	e8 3c f9 ff ff       	call   40107b <exit@plt+0x98b>
  40173f:	0f b6 c0             	movzx  eax,al
  401742:	89 c7                	mov    edi,eax
  401744:	e8 32 f9 ff ff       	call   40107b <exit@plt+0x98b>
  401749:	0f b6 45 eb          	movzx  eax,BYTE PTR [rbp-0x15]
  40174d:	89 c7                	mov    edi,eax
  40174f:	e8 27 f9 ff ff       	call   40107b <exit@plt+0x98b>
  401754:	0f b6 c0             	movzx  eax,al
  401757:	89 c7                	mov    edi,eax
  401759:	e8 1d f9 ff ff       	call   40107b <exit@plt+0x98b>
  40175e:	0f b6 c0             	movzx  eax,al
  401761:	89 c7                	mov    edi,eax
  401763:	e8 13 f9 ff ff       	call   40107b <exit@plt+0x98b>
  401768:	0f b6 c0             	movzx  eax,al
  40176b:	89 c7                	mov    edi,eax
  40176d:	e8 09 f9 ff ff       	call   40107b <exit@plt+0x98b>
  401772:	0f b6 45 e8          	movzx  eax,BYTE PTR [rbp-0x18]
  401776:	89 c7                	mov    edi,eax
  401778:	e8 fe f8 ff ff       	call   40107b <exit@plt+0x98b>
  40177d:	0f b6 c0             	movzx  eax,al
  401780:	89 c7                	mov    edi,eax
  401782:	e8 f4 f8 ff ff       	call   40107b <exit@plt+0x98b>
  401787:	32 45 e8             	xor    al,BYTE PTR [rbp-0x18]
  40178a:	89 c3                	mov    ebx,eax
  40178c:	0f b6 45 e8          	movzx  eax,BYTE PTR [rbp-0x18]
  401790:	89 c7                	mov    edi,eax
  401792:	e8 e4 f8 ff ff       	call   40107b <exit@plt+0x98b>
  401797:	0f b6 c0             	movzx  eax,al
  40179a:	89 c7                	mov    edi,eax
  40179c:	e8 da f8 ff ff       	call   40107b <exit@plt+0x98b>
  4017a1:	0f b6 c0             	movzx  eax,al
  4017a4:	89 c7                	mov    edi,eax
  4017a6:	e8 d0 f8 ff ff       	call   40107b <exit@plt+0x98b>
  4017ab:	31 c3                	xor    ebx,eax
  4017ad:	0f b6 45 e9          	movzx  eax,BYTE PTR [rbp-0x17]
  4017b1:	89 c7                	mov    edi,eax
  4017b3:	e8 c3 f8 ff ff       	call   40107b <exit@plt+0x98b>
  4017b8:	0f b6 c0             	movzx  eax,al
  4017bb:	89 c7                	mov    edi,eax
  4017bd:	e8 b9 f8 ff ff       	call   40107b <exit@plt+0x98b>
  4017c2:	0f b6 c0             	movzx  eax,al
  4017c5:	89 c7                	mov    edi,eax
  4017c7:	e8 af f8 ff ff       	call   40107b <exit@plt+0x98b>
  4017cc:	32 45 e9             	xor    al,BYTE PTR [rbp-0x17]
  4017cf:	31 c3                	xor    ebx,eax
  4017d1:	41 89 dc             	mov    r12d,ebx
  4017d4:	0f b6 45 ea          	movzx  eax,BYTE PTR [rbp-0x16]
  4017d8:	89 c7                	mov    edi,eax
  4017da:	e8 9c f8 ff ff       	call   40107b <exit@plt+0x98b>
  4017df:	89 c3                	mov    ebx,eax
  4017e1:	0f b6 45 ea          	movzx  eax,BYTE PTR [rbp-0x16]
  4017e5:	89 c7                	mov    edi,eax
  4017e7:	e8 8f f8 ff ff       	call   40107b <exit@plt+0x98b>
  4017ec:	0f b6 c0             	movzx  eax,al
  4017ef:	89 c7                	mov    edi,eax
  4017f1:	e8 85 f8 ff ff       	call   40107b <exit@plt+0x98b>
  4017f6:	31 c3                	xor    ebx,eax
  4017f8:	0f b6 45 ea          	movzx  eax,BYTE PTR [rbp-0x16]
  4017fc:	89 c7                	mov    edi,eax
  4017fe:	e8 78 f8 ff ff       	call   40107b <exit@plt+0x98b>
  401803:	0f b6 c0             	movzx  eax,al
  401806:	89 c7                	mov    edi,eax
  401808:	e8 6e f8 ff ff       	call   40107b <exit@plt+0x98b>
  40180d:	0f b6 c0             	movzx  eax,al
  401810:	89 c7                	mov    edi,eax
  401812:	e8 64 f8 ff ff       	call   40107b <exit@plt+0x98b>
  401817:	31 d8                	xor    eax,ebx
  401819:	41 31 c4             	xor    r12d,eax
  40181c:	0f b6 45 eb          	movzx  eax,BYTE PTR [rbp-0x15]
  401820:	89 c7                	mov    edi,eax
  401822:	e8 54 f8 ff ff       	call   40107b <exit@plt+0x98b>
  401827:	32 45 eb             	xor    al,BYTE PTR [rbp-0x15]
  40182a:	89 c3                	mov    ebx,eax
  40182c:	0f b6 45 eb          	movzx  eax,BYTE PTR [rbp-0x15]
  401830:	89 c7                	mov    edi,eax
  401832:	e8 44 f8 ff ff       	call   40107b <exit@plt+0x98b>
  401837:	0f b6 c0             	movzx  eax,al
  40183a:	89 c7                	mov    edi,eax
  40183c:	e8 3a f8 ff ff       	call   40107b <exit@plt+0x98b>
  401841:	0f b6 c0             	movzx  eax,al
  401844:	89 c7                	mov    edi,eax
  401846:	e8 30 f8 ff ff       	call   40107b <exit@plt+0x98b>
  40184b:	31 d8                	xor    eax,ebx
  40184d:	44 89 e1             	mov    ecx,r12d
  401850:	31 c1                	xor    ecx,eax
  401852:	48 8b 45 d8          	mov    rax,QWORD PTR [rbp-0x28]
  401856:	8b 55 ec             	mov    edx,DWORD PTR [rbp-0x14]
  401859:	48 63 d2             	movsxd rdx,edx
  40185c:	88 4c 90 02          	mov    BYTE PTR [rax+rdx*4+0x2],cl
  401860:	0f b6 45 e8          	movzx  eax,BYTE PTR [rbp-0x18]
  401864:	89 c7                	mov    edi,eax
  401866:	e8 10 f8 ff ff       	call   40107b <exit@plt+0x98b>
  40186b:	0f b6 c0             	movzx  eax,al
  40186e:	89 c7                	mov    edi,eax
  401870:	e8 06 f8 ff ff       	call   40107b <exit@plt+0x98b>
  401875:	0f b6 45 e8          	movzx  eax,BYTE PTR [rbp-0x18]
  401879:	89 c7                	mov    edi,eax
  40187b:	e8 fb f7 ff ff       	call   40107b <exit@plt+0x98b>
  401880:	0f b6 c0             	movzx  eax,al
  401883:	89 c7                	mov    edi,eax
  401885:	e8 f1 f7 ff ff       	call   40107b <exit@plt+0x98b>
  40188a:	0f b6 c0             	movzx  eax,al
  40188d:	89 c7                	mov    edi,eax
  40188f:	e8 e7 f7 ff ff       	call   40107b <exit@plt+0x98b>
  401894:	0f b6 c0             	movzx  eax,al
  401897:	89 c7                	mov    edi,eax
  401899:	e8 dd f7 ff ff       	call   40107b <exit@plt+0x98b>
  40189e:	0f b6 45 e9          	movzx  eax,BYTE PTR [rbp-0x17]
  4018a2:	89 c7                	mov    edi,eax
  4018a4:	e8 d2 f7 ff ff       	call   40107b <exit@plt+0x98b>
  4018a9:	0f b6 45 e9          	movzx  eax,BYTE PTR [rbp-0x17]
  4018ad:	89 c7                	mov    edi,eax
  4018af:	e8 c7 f7 ff ff       	call   40107b <exit@plt+0x98b>
  4018b4:	0f b6 c0             	movzx  eax,al
  4018b7:	89 c7                	mov    edi,eax
  4018b9:	e8 bd f7 ff ff       	call   40107b <exit@plt+0x98b>
  4018be:	0f b6 c0             	movzx  eax,al
  4018c1:	89 c7                	mov    edi,eax
  4018c3:	e8 b3 f7 ff ff       	call   40107b <exit@plt+0x98b>
  4018c8:	0f b6 c0             	movzx  eax,al
  4018cb:	89 c7                	mov    edi,eax
  4018cd:	e8 a9 f7 ff ff       	call   40107b <exit@plt+0x98b>
  4018d2:	0f b6 45 ea          	movzx  eax,BYTE PTR [rbp-0x16]
  4018d6:	89 c7                	mov    edi,eax
  4018d8:	e8 9e f7 ff ff       	call   40107b <exit@plt+0x98b>
  4018dd:	0f b6 45 ea          	movzx  eax,BYTE PTR [rbp-0x16]
  4018e1:	89 c7                	mov    edi,eax
  4018e3:	e8 93 f7 ff ff       	call   40107b <exit@plt+0x98b>
  4018e8:	0f b6 c0             	movzx  eax,al
  4018eb:	89 c7                	mov    edi,eax
  4018ed:	e8 89 f7 ff ff       	call   40107b <exit@plt+0x98b>
  4018f2:	0f b6 45 ea          	movzx  eax,BYTE PTR [rbp-0x16]
  4018f6:	89 c7                	mov    edi,eax
  4018f8:	e8 7e f7 ff ff       	call   40107b <exit@plt+0x98b>
  4018fd:	0f b6 c0             	movzx  eax,al
  401900:	89 c7                	mov    edi,eax
  401902:	e8 74 f7 ff ff       	call   40107b <exit@plt+0x98b>
  401907:	0f b6 c0             	movzx  eax,al
  40190a:	89 c7                	mov    edi,eax
  40190c:	e8 6a f7 ff ff       	call   40107b <exit@plt+0x98b>
  401911:	0f b6 c0             	movzx  eax,al
  401914:	89 c7                	mov    edi,eax
  401916:	e8 60 f7 ff ff       	call   40107b <exit@plt+0x98b>
  40191b:	0f b6 45 eb          	movzx  eax,BYTE PTR [rbp-0x15]
  40191f:	89 c7                	mov    edi,eax
  401921:	e8 55 f7 ff ff       	call   40107b <exit@plt+0x98b>
  401926:	0f b6 c0             	movzx  eax,al
  401929:	89 c7                	mov    edi,eax
  40192b:	e8 4b f7 ff ff       	call   40107b <exit@plt+0x98b>
  401930:	0f b6 c0             	movzx  eax,al
  401933:	89 c7                	mov    edi,eax
  401935:	e8 41 f7 ff ff       	call   40107b <exit@plt+0x98b>
  40193a:	0f b6 c0             	movzx  eax,al
  40193d:	89 c7                	mov    edi,eax
  40193f:	e8 37 f7 ff ff       	call   40107b <exit@plt+0x98b>
  401944:	0f b6 45 e8          	movzx  eax,BYTE PTR [rbp-0x18]
  401948:	89 c7                	mov    edi,eax
  40194a:	e8 2c f7 ff ff       	call   40107b <exit@plt+0x98b>
  40194f:	32 45 e8             	xor    al,BYTE PTR [rbp-0x18]
  401952:	89 c3                	mov    ebx,eax
  401954:	0f b6 45 e8          	movzx  eax,BYTE PTR [rbp-0x18]
  401958:	89 c7                	mov    edi,eax
  40195a:	e8 1c f7 ff ff       	call   40107b <exit@plt+0x98b>
  40195f:	0f b6 c0             	movzx  eax,al
  401962:	89 c7                	mov    edi,eax
  401964:	e8 12 f7 ff ff       	call   40107b <exit@plt+0x98b>
  401969:	0f b6 c0             	movzx  eax,al
  40196c:	89 c7                	mov    edi,eax
  40196e:	e8 08 f7 ff ff       	call   40107b <exit@plt+0x98b>
  401973:	31 c3                	xor    ebx,eax
  401975:	41 89 dc             	mov    r12d,ebx
  401978:	0f b6 45 e9          	movzx  eax,BYTE PTR [rbp-0x17]
  40197c:	89 c7                	mov    edi,eax
  40197e:	e8 f8 f6 ff ff       	call   40107b <exit@plt+0x98b>
  401983:	0f b6 c0             	movzx  eax,al
  401986:	89 c7                	mov    edi,eax
  401988:	e8 ee f6 ff ff       	call   40107b <exit@plt+0x98b>
  40198d:	32 45 e9             	xor    al,BYTE PTR [rbp-0x17]
  401990:	89 c3                	mov    ebx,eax
  401992:	0f b6 45 e9          	movzx  eax,BYTE PTR [rbp-0x17]
  401996:	89 c7                	mov    edi,eax
  401998:	e8 de f6 ff ff       	call   40107b <exit@plt+0x98b>
  40199d:	0f b6 c0             	movzx  eax,al
  4019a0:	89 c7                	mov    edi,eax
  4019a2:	e8 d4 f6 ff ff       	call   40107b <exit@plt+0x98b>
  4019a7:	0f b6 c0             	movzx  eax,al
  4019aa:	89 c7                	mov    edi,eax
  4019ac:	e8 ca f6 ff ff       	call   40107b <exit@plt+0x98b>
  4019b1:	31 d8                	xor    eax,ebx
  4019b3:	44 89 e3             	mov    ebx,r12d
  4019b6:	31 c3                	xor    ebx,eax
  4019b8:	0f b6 45 ea          	movzx  eax,BYTE PTR [rbp-0x16]
  4019bc:	89 c7                	mov    edi,eax
  4019be:	e8 b8 f6 ff ff       	call   40107b <exit@plt+0x98b>
  4019c3:	0f b6 c0             	movzx  eax,al
  4019c6:	89 c7                	mov    edi,eax
  4019c8:	e8 ae f6 ff ff       	call   40107b <exit@plt+0x98b>
  4019cd:	0f b6 c0             	movzx  eax,al
  4019d0:	89 c7                	mov    edi,eax
  4019d2:	e8 a4 f6 ff ff       	call   40107b <exit@plt+0x98b>
  4019d7:	32 45 ea             	xor    al,BYTE PTR [rbp-0x16]
  4019da:	31 c3                	xor    ebx,eax
  4019dc:	41 89 dc             	mov    r12d,ebx
  4019df:	0f b6 45 eb          	movzx  eax,BYTE PTR [rbp-0x15]
  4019e3:	89 c7                	mov    edi,eax
  4019e5:	e8 91 f6 ff ff       	call   40107b <exit@plt+0x98b>
  4019ea:	89 c3                	mov    ebx,eax
  4019ec:	0f b6 45 eb          	movzx  eax,BYTE PTR [rbp-0x15]
  4019f0:	89 c7                	mov    edi,eax
  4019f2:	e8 84 f6 ff ff       	call   40107b <exit@plt+0x98b>
  4019f7:	0f b6 c0             	movzx  eax,al
  4019fa:	89 c7                	mov    edi,eax
  4019fc:	e8 7a f6 ff ff       	call   40107b <exit@plt+0x98b>
  401a01:	31 c3                	xor    ebx,eax
  401a03:	0f b6 45 eb          	movzx  eax,BYTE PTR [rbp-0x15]
  401a07:	89 c7                	mov    edi,eax
  401a09:	e8 6d f6 ff ff       	call   40107b <exit@plt+0x98b>
  401a0e:	0f b6 c0             	movzx  eax,al
  401a11:	89 c7                	mov    edi,eax
  401a13:	e8 63 f6 ff ff       	call   40107b <exit@plt+0x98b>
  401a18:	0f b6 c0             	movzx  eax,al
  401a1b:	89 c7                	mov    edi,eax
  401a1d:	e8 59 f6 ff ff       	call   40107b <exit@plt+0x98b>
  401a22:	31 d8                	xor    eax,ebx
  401a24:	44 89 e1             	mov    ecx,r12d
  401a27:	31 c1                	xor    ecx,eax
  401a29:	48 8b 45 d8          	mov    rax,QWORD PTR [rbp-0x28]
  401a2d:	8b 55 ec             	mov    edx,DWORD PTR [rbp-0x14]
  401a30:	48 63 d2             	movsxd rdx,edx
  401a33:	88 4c 90 03          	mov    BYTE PTR [rax+rdx*4+0x3],cl
  401a37:	83 45 ec 01          	add    DWORD PTR [rbp-0x14],0x1
  401a3b:	83 7d ec 03          	cmp    DWORD PTR [rbp-0x14],0x3
  401a3f:	0f 8e 58 f8 ff ff    	jle    40129d <exit@plt+0xbad>
  401a45:	90                   	nop
  401a46:	48 83 c4 18          	add    rsp,0x18
  401a4a:	5b                   	pop    rbx
  401a4b:	41 5c                	pop    r12
  401a4d:	5d                   	pop    rbp
  401a4e:	c3                   	ret    
  401a4f:	55                   	push   rbp
  401a50:	48 89 e5             	mov    rbp,rsp
  401a53:	48 89 7d e8          	mov    QWORD PTR [rbp-0x18],rdi
  401a57:	c6 45 fe 00          	mov    BYTE PTR [rbp-0x2],0x0
  401a5b:	eb 61                	jmp    401abe <exit@plt+0x13ce>
  401a5d:	c6 45 ff 00          	mov    BYTE PTR [rbp-0x1],0x0
  401a61:	eb 51                	jmp    401ab4 <exit@plt+0x13c4>
  401a63:	0f b6 45 ff          	movzx  eax,BYTE PTR [rbp-0x1]
  401a67:	0f b6 55 fe          	movzx  edx,BYTE PTR [rbp-0x2]
  401a6b:	48 8b 4d e8          	mov    rcx,QWORD PTR [rbp-0x18]
  401a6f:	48 63 d2             	movsxd rdx,edx
  401a72:	48 98                	cdqe   
  401a74:	48 c1 e0 02          	shl    rax,0x2
  401a78:	48 01 c8             	add    rax,rcx
  401a7b:	48 01 d0             	add    rax,rdx
  401a7e:	0f b6 00             	movzx  eax,BYTE PTR [rax]
  401a81:	0f b6 c0             	movzx  eax,al
  401a84:	0f b6 7d ff          	movzx  edi,BYTE PTR [rbp-0x1]
  401a88:	0f b6 4d fe          	movzx  ecx,BYTE PTR [rbp-0x2]
  401a8c:	48 63 d0             	movsxd rdx,eax
  401a8f:	48 8d 05 6a 07 00 00 	lea    rax,[rip+0x76a]        # 402200 <exit@plt+0x1b10>
  401a96:	0f b6 14 02          	movzx  edx,BYTE PTR [rdx+rax*1]
  401a9a:	48 8b 75 e8          	mov    rsi,QWORD PTR [rbp-0x18]
  401a9e:	48 63 c9             	movsxd rcx,ecx
  401aa1:	48 63 c7             	movsxd rax,edi
  401aa4:	48 c1 e0 02          	shl    rax,0x2
  401aa8:	48 01 f0             	add    rax,rsi
  401aab:	48 01 c8             	add    rax,rcx
  401aae:	88 10                	mov    BYTE PTR [rax],dl
  401ab0:	80 45 ff 01          	add    BYTE PTR [rbp-0x1],0x1
  401ab4:	80 7d ff 03          	cmp    BYTE PTR [rbp-0x1],0x3
  401ab8:	76 a9                	jbe    401a63 <exit@plt+0x1373>
  401aba:	80 45 fe 01          	add    BYTE PTR [rbp-0x2],0x1
  401abe:	80 7d fe 03          	cmp    BYTE PTR [rbp-0x2],0x3
  401ac2:	76 99                	jbe    401a5d <exit@plt+0x136d>
  401ac4:	90                   	nop
  401ac5:	5d                   	pop    rbp
  401ac6:	c3                   	ret    
  401ac7:	55                   	push   rbp
  401ac8:	48 89 e5             	mov    rbp,rsp
  401acb:	48 89 7d e8          	mov    QWORD PTR [rbp-0x18],rdi
  401acf:	48 8b 45 e8          	mov    rax,QWORD PTR [rbp-0x18]
  401ad3:	0f b6 40 0d          	movzx  eax,BYTE PTR [rax+0xd]
  401ad7:	88 45 ff             	mov    BYTE PTR [rbp-0x1],al
  401ada:	48 8b 45 e8          	mov    rax,QWORD PTR [rbp-0x18]
  401ade:	0f b6 50 09          	movzx  edx,BYTE PTR [rax+0x9]
  401ae2:	48 8b 45 e8          	mov    rax,QWORD PTR [rbp-0x18]
  401ae6:	88 50 0d             	mov    BYTE PTR [rax+0xd],dl
  401ae9:	48 8b 45 e8          	mov    rax,QWORD PTR [rbp-0x18]
  401aed:	0f b6 50 05          	movzx  edx,BYTE PTR [rax+0x5]
  401af1:	48 8b 45 e8          	mov    rax,QWORD PTR [rbp-0x18]
  401af5:	88 50 09             	mov    BYTE PTR [rax+0x9],dl
  401af8:	48 8b 45 e8          	mov    rax,QWORD PTR [rbp-0x18]
  401afc:	0f b6 50 01          	movzx  edx,BYTE PTR [rax+0x1]
  401b00:	48 8b 45 e8          	mov    rax,QWORD PTR [rbp-0x18]
  401b04:	88 50 05             	mov    BYTE PTR [rax+0x5],dl
  401b07:	48 8b 45 e8          	mov    rax,QWORD PTR [rbp-0x18]
  401b0b:	0f b6 55 ff          	movzx  edx,BYTE PTR [rbp-0x1]
  401b0f:	88 50 01             	mov    BYTE PTR [rax+0x1],dl
  401b12:	48 8b 45 e8          	mov    rax,QWORD PTR [rbp-0x18]
  401b16:	0f b6 40 02          	movzx  eax,BYTE PTR [rax+0x2]
  401b1a:	88 45 ff             	mov    BYTE PTR [rbp-0x1],al
  401b1d:	48 8b 45 e8          	mov    rax,QWORD PTR [rbp-0x18]
  401b21:	0f b6 50 0a          	movzx  edx,BYTE PTR [rax+0xa]
  401b25:	48 8b 45 e8          	mov    rax,QWORD PTR [rbp-0x18]
  401b29:	88 50 02             	mov    BYTE PTR [rax+0x2],dl
  401b2c:	48 8b 45 e8          	mov    rax,QWORD PTR [rbp-0x18]
  401b30:	0f b6 55 ff          	movzx  edx,BYTE PTR [rbp-0x1]
  401b34:	88 50 0a             	mov    BYTE PTR [rax+0xa],dl
  401b37:	48 8b 45 e8          	mov    rax,QWORD PTR [rbp-0x18]
  401b3b:	0f b6 40 06          	movzx  eax,BYTE PTR [rax+0x6]
  401b3f:	88 45 ff             	mov    BYTE PTR [rbp-0x1],al
  401b42:	48 8b 45 e8          	mov    rax,QWORD PTR [rbp-0x18]
  401b46:	0f b6 50 0e          	movzx  edx,BYTE PTR [rax+0xe]
  401b4a:	48 8b 45 e8          	mov    rax,QWORD PTR [rbp-0x18]
  401b4e:	88 50 06             	mov    BYTE PTR [rax+0x6],dl
  401b51:	48 8b 45 e8          	mov    rax,QWORD PTR [rbp-0x18]
  401b55:	0f b6 55 ff          	movzx  edx,BYTE PTR [rbp-0x1]
  401b59:	88 50 0e             	mov    BYTE PTR [rax+0xe],dl
  401b5c:	48 8b 45 e8          	mov    rax,QWORD PTR [rbp-0x18]
  401b60:	0f b6 40 03          	movzx  eax,BYTE PTR [rax+0x3]
  401b64:	88 45 ff             	mov    BYTE PTR [rbp-0x1],al
  401b67:	48 8b 45 e8          	mov    rax,QWORD PTR [rbp-0x18]
  401b6b:	0f b6 50 07          	movzx  edx,BYTE PTR [rax+0x7]
  401b6f:	48 8b 45 e8          	mov    rax,QWORD PTR [rbp-0x18]
  401b73:	88 50 03             	mov    BYTE PTR [rax+0x3],dl
  401b76:	48 8b 45 e8          	mov    rax,QWORD PTR [rbp-0x18]
  401b7a:	0f b6 50 0b          	movzx  edx,BYTE PTR [rax+0xb]
  401b7e:	48 8b 45 e8          	mov    rax,QWORD PTR [rbp-0x18]
  401b82:	88 50 07             	mov    BYTE PTR [rax+0x7],dl
  401b85:	48 8b 45 e8          	mov    rax,QWORD PTR [rbp-0x18]
  401b89:	0f b6 50 0f          	movzx  edx,BYTE PTR [rax+0xf]
  401b8d:	48 8b 45 e8          	mov    rax,QWORD PTR [rbp-0x18]
  401b91:	88 50 0b             	mov    BYTE PTR [rax+0xb],dl
  401b94:	48 8b 45 e8          	mov    rax,QWORD PTR [rbp-0x18]
  401b98:	0f b6 55 ff          	movzx  edx,BYTE PTR [rbp-0x1]
  401b9c:	88 50 0f             	mov    BYTE PTR [rax+0xf],dl
  401b9f:	90                   	nop
  401ba0:	5d                   	pop    rbp
  401ba1:	c3                   	ret    
  401ba2:	55                   	push   rbp
  401ba3:	48 89 e5             	mov    rbp,rsp
  401ba6:	48 83 ec 20          	sub    rsp,0x20
  401baa:	48 89 7d e8          	mov    QWORD PTR [rbp-0x18],rdi
  401bae:	48 89 75 e0          	mov    QWORD PTR [rbp-0x20],rsi
  401bb2:	c6 45 ff 00          	mov    BYTE PTR [rbp-0x1],0x0
  401bb6:	48 8b 55 e0          	mov    rdx,QWORD PTR [rbp-0x20]
  401bba:	48 8b 45 e8          	mov    rax,QWORD PTR [rbp-0x18]
  401bbe:	48 89 c6             	mov    rsi,rax
  401bc1:	bf 00 00 00 00       	mov    edi,0x0
  401bc6:	e8 bc f2 ff ff       	call   400e87 <exit@plt+0x797>
  401bcb:	c6 45 ff 01          	mov    BYTE PTR [rbp-0x1],0x1
  401bcf:	eb 3e                	jmp    401c0f <exit@plt+0x151f>
  401bd1:	48 8b 45 e8          	mov    rax,QWORD PTR [rbp-0x18]
  401bd5:	48 89 c7             	mov    rdi,rax
  401bd8:	e8 4b f3 ff ff       	call   400f28 <exit@plt+0x838>
  401bdd:	48 8b 45 e8          	mov    rax,QWORD PTR [rbp-0x18]
  401be1:	48 89 c7             	mov    rdi,rax
  401be4:	e8 b7 f3 ff ff       	call   400fa0 <exit@plt+0x8b0>
  401be9:	48 8b 45 e8          	mov    rax,QWORD PTR [rbp-0x18]
  401bed:	48 89 c7             	mov    rdi,rax
  401bf0:	e8 b3 f4 ff ff       	call   4010a8 <exit@plt+0x9b8>
  401bf5:	0f b6 45 ff          	movzx  eax,BYTE PTR [rbp-0x1]
  401bf9:	48 8b 55 e0          	mov    rdx,QWORD PTR [rbp-0x20]
  401bfd:	48 8b 4d e8          	mov    rcx,QWORD PTR [rbp-0x18]
  401c01:	48 89 ce             	mov    rsi,rcx
  401c04:	89 c7                	mov    edi,eax
  401c06:	e8 7c f2 ff ff       	call   400e87 <exit@plt+0x797>
  401c0b:	80 45 ff 01          	add    BYTE PTR [rbp-0x1],0x1
  401c0f:	80 7d ff 09          	cmp    BYTE PTR [rbp-0x1],0x9
  401c13:	76 bc                	jbe    401bd1 <exit@plt+0x14e1>
  401c15:	48 8b 45 e8          	mov    rax,QWORD PTR [rbp-0x18]
  401c19:	48 89 c7             	mov    rdi,rax
  401c1c:	e8 07 f3 ff ff       	call   400f28 <exit@plt+0x838>
  401c21:	48 8b 45 e8          	mov    rax,QWORD PTR [rbp-0x18]
  401c25:	48 89 c7             	mov    rdi,rax
  401c28:	e8 73 f3 ff ff       	call   400fa0 <exit@plt+0x8b0>
  401c2d:	48 8b 55 e0          	mov    rdx,QWORD PTR [rbp-0x20]
  401c31:	48 8b 45 e8          	mov    rax,QWORD PTR [rbp-0x18]
  401c35:	48 89 c6             	mov    rsi,rax
  401c38:	bf 0a 00 00 00       	mov    edi,0xa
  401c3d:	e8 45 f2 ff ff       	call   400e87 <exit@plt+0x797>
  401c42:	90                   	nop
  401c43:	c9                   	leave  
  401c44:	c3                   	ret    
  401c45:	55                   	push   rbp
  401c46:	48 89 e5             	mov    rbp,rsp
  401c49:	48 83 ec 20          	sub    rsp,0x20
  401c4d:	48 89 7d e8          	mov    QWORD PTR [rbp-0x18],rdi
  401c51:	48 89 75 e0          	mov    QWORD PTR [rbp-0x20],rsi
  401c55:	c6 45 ff 00          	mov    BYTE PTR [rbp-0x1],0x0
  401c59:	48 8b 55 e0          	mov    rdx,QWORD PTR [rbp-0x20]
  401c5d:	48 8b 45 e8          	mov    rax,QWORD PTR [rbp-0x18]
  401c61:	48 89 c6             	mov    rsi,rax
  401c64:	bf 0a 00 00 00       	mov    edi,0xa
  401c69:	e8 19 f2 ff ff       	call   400e87 <exit@plt+0x797>
  401c6e:	c6 45 ff 09          	mov    BYTE PTR [rbp-0x1],0x9
  401c72:	eb 3e                	jmp    401cb2 <exit@plt+0x15c2>
  401c74:	48 8b 45 e8          	mov    rax,QWORD PTR [rbp-0x18]
  401c78:	48 89 c7             	mov    rdi,rax
  401c7b:	e8 47 fe ff ff       	call   401ac7 <exit@plt+0x13d7>
  401c80:	48 8b 45 e8          	mov    rax,QWORD PTR [rbp-0x18]
  401c84:	48 89 c7             	mov    rdi,rax
  401c87:	e8 c3 fd ff ff       	call   401a4f <exit@plt+0x135f>
  401c8c:	0f b6 45 ff          	movzx  eax,BYTE PTR [rbp-0x1]
  401c90:	48 8b 55 e0          	mov    rdx,QWORD PTR [rbp-0x20]
  401c94:	48 8b 4d e8          	mov    rcx,QWORD PTR [rbp-0x18]
  401c98:	48 89 ce             	mov    rsi,rcx
  401c9b:	89 c7                	mov    edi,eax
  401c9d:	e8 e5 f1 ff ff       	call   400e87 <exit@plt+0x797>
  401ca2:	48 8b 45 e8          	mov    rax,QWORD PTR [rbp-0x18]
  401ca6:	48 89 c7             	mov    rdi,rax
  401ca9:	e8 d4 f5 ff ff       	call   401282 <exit@plt+0xb92>
  401cae:	80 6d ff 01          	sub    BYTE PTR [rbp-0x1],0x1
  401cb2:	80 7d ff 00          	cmp    BYTE PTR [rbp-0x1],0x0
  401cb6:	75 bc                	jne    401c74 <exit@plt+0x1584>
  401cb8:	48 8b 45 e8          	mov    rax,QWORD PTR [rbp-0x18]
  401cbc:	48 89 c7             	mov    rdi,rax
  401cbf:	e8 03 fe ff ff       	call   401ac7 <exit@plt+0x13d7>
  401cc4:	48 8b 45 e8          	mov    rax,QWORD PTR [rbp-0x18]
  401cc8:	48 89 c7             	mov    rdi,rax
  401ccb:	e8 7f fd ff ff       	call   401a4f <exit@plt+0x135f>
  401cd0:	48 8b 55 e0          	mov    rdx,QWORD PTR [rbp-0x20]
  401cd4:	48 8b 45 e8          	mov    rax,QWORD PTR [rbp-0x18]
  401cd8:	48 89 c6             	mov    rsi,rax
  401cdb:	bf 00 00 00 00       	mov    edi,0x0
  401ce0:	e8 a2 f1 ff ff       	call   400e87 <exit@plt+0x797>
  401ce5:	90                   	nop
  401ce6:	c9                   	leave  
  401ce7:	c3                   	ret    
  401ce8:	55                   	push   rbp
  401ce9:	48 89 e5             	mov    rbp,rsp
  401cec:	48 83 ec 10          	sub    rsp,0x10
  401cf0:	48 89 7d f8          	mov    QWORD PTR [rbp-0x8],rdi
  401cf4:	48 89 75 f0          	mov    QWORD PTR [rbp-0x10],rsi
  401cf8:	48 8b 55 f8          	mov    rdx,QWORD PTR [rbp-0x8]
  401cfc:	48 8b 45 f0          	mov    rax,QWORD PTR [rbp-0x10]
  401d00:	48 89 d6             	mov    rsi,rdx
  401d03:	48 89 c7             	mov    rdi,rax
  401d06:	e8 97 fe ff ff       	call   401ba2 <exit@plt+0x14b2>
  401d0b:	90                   	nop
  401d0c:	c9                   	leave  
  401d0d:	c3                   	ret    
  401d0e:	55                   	push   rbp
  401d0f:	48 89 e5             	mov    rbp,rsp
  401d12:	48 83 ec 10          	sub    rsp,0x10
  401d16:	48 89 7d f8          	mov    QWORD PTR [rbp-0x8],rdi
  401d1a:	48 89 75 f0          	mov    QWORD PTR [rbp-0x10],rsi
  401d1e:	48 8b 55 f8          	mov    rdx,QWORD PTR [rbp-0x8]
  401d22:	48 8b 45 f0          	mov    rax,QWORD PTR [rbp-0x10]
  401d26:	48 89 d6             	mov    rsi,rdx
  401d29:	48 89 c7             	mov    rdi,rax
  401d2c:	e8 14 ff ff ff       	call   401c45 <exit@plt+0x1555>
  401d31:	90                   	nop
  401d32:	c9                   	leave  
  401d33:	c3                   	ret    
  401d34:	55                   	push   rbp
  401d35:	48 89 e5             	mov    rbp,rsp
  401d38:	48 89 7d e8          	mov    QWORD PTR [rbp-0x18],rdi
  401d3c:	48 89 75 e0          	mov    QWORD PTR [rbp-0x20],rsi
  401d40:	c6 45 ff 00          	mov    BYTE PTR [rbp-0x1],0x0
  401d44:	eb 31                	jmp    401d77 <exit@plt+0x1687>
  401d46:	0f b6 55 ff          	movzx  edx,BYTE PTR [rbp-0x1]
  401d4a:	48 8b 45 e8          	mov    rax,QWORD PTR [rbp-0x18]
  401d4e:	48 01 d0             	add    rax,rdx
  401d51:	0f b6 30             	movzx  esi,BYTE PTR [rax]
  401d54:	0f b6 55 ff          	movzx  edx,BYTE PTR [rbp-0x1]
  401d58:	48 8b 45 e0          	mov    rax,QWORD PTR [rbp-0x20]
  401d5c:	48 01 d0             	add    rax,rdx
  401d5f:	0f b6 08             	movzx  ecx,BYTE PTR [rax]
  401d62:	0f b6 55 ff          	movzx  edx,BYTE PTR [rbp-0x1]
  401d66:	48 8b 45 e8          	mov    rax,QWORD PTR [rbp-0x18]
  401d6a:	48 01 d0             	add    rax,rdx
  401d6d:	31 ce                	xor    esi,ecx
  401d6f:	89 f2                	mov    edx,esi
  401d71:	88 10                	mov    BYTE PTR [rax],dl
  401d73:	80 45 ff 01          	add    BYTE PTR [rbp-0x1],0x1
  401d77:	80 7d ff 0f          	cmp    BYTE PTR [rbp-0x1],0xf
  401d7b:	76 c9                	jbe    401d46 <exit@plt+0x1656>
  401d7d:	90                   	nop
  401d7e:	5d                   	pop    rbp
  401d7f:	c3                   	ret    
  401d80:	55                   	push   rbp
  401d81:	48 89 e5             	mov    rbp,rsp
  401d84:	48 83 ec 28          	sub    rsp,0x28
  401d88:	48 89 7d e8          	mov    QWORD PTR [rbp-0x18],rdi
  401d8c:	48 89 75 e0          	mov    QWORD PTR [rbp-0x20],rsi
  401d90:	89 55 dc             	mov    DWORD PTR [rbp-0x24],edx
  401d93:	48 8b 45 e8          	mov    rax,QWORD PTR [rbp-0x18]
  401d97:	48 05 b0 00 00 00    	add    rax,0xb0
  401d9d:	48 89 45 f8          	mov    QWORD PTR [rbp-0x8],rax
  401da1:	48 c7 45 f0 00 00 00 	mov    QWORD PTR [rbp-0x10],0x0
  401da8:	00 
  401da9:	eb 38                	jmp    401de3 <exit@plt+0x16f3>
  401dab:	48 8b 55 f8          	mov    rdx,QWORD PTR [rbp-0x8]
  401daf:	48 8b 45 e0          	mov    rax,QWORD PTR [rbp-0x20]
  401db3:	48 89 d6             	mov    rsi,rdx
  401db6:	48 89 c7             	mov    rdi,rax
  401db9:	e8 76 ff ff ff       	call   401d34 <exit@plt+0x1644>
  401dbe:	48 8b 55 e8          	mov    rdx,QWORD PTR [rbp-0x18]
  401dc2:	48 8b 45 e0          	mov    rax,QWORD PTR [rbp-0x20]
  401dc6:	48 89 d6             	mov    rsi,rdx
  401dc9:	48 89 c7             	mov    rdi,rax
  401dcc:	e8 d1 fd ff ff       	call   401ba2 <exit@plt+0x14b2>
  401dd1:	48 8b 45 e0          	mov    rax,QWORD PTR [rbp-0x20]
  401dd5:	48 89 45 f8          	mov    QWORD PTR [rbp-0x8],rax
  401dd9:	48 83 45 e0 10       	add    QWORD PTR [rbp-0x20],0x10
  401dde:	48 83 45 f0 10       	add    QWORD PTR [rbp-0x10],0x10
  401de3:	8b 45 dc             	mov    eax,DWORD PTR [rbp-0x24]
  401de6:	48 39 45 f0          	cmp    QWORD PTR [rbp-0x10],rax
  401dea:	72 bf                	jb     401dab <exit@plt+0x16bb>
  401dec:	48 8b 45 e8          	mov    rax,QWORD PTR [rbp-0x18]
  401df0:	48 8d 88 b0 00 00 00 	lea    rcx,[rax+0xb0]
  401df7:	48 8b 45 f8          	mov    rax,QWORD PTR [rbp-0x8]
  401dfb:	48 8b 50 08          	mov    rdx,QWORD PTR [rax+0x8]
  401dff:	48 8b 00             	mov    rax,QWORD PTR [rax]
  401e02:	48 89 01             	mov    QWORD PTR [rcx],rax
  401e05:	48 89 51 08          	mov    QWORD PTR [rcx+0x8],rdx
  401e09:	90                   	nop
  401e0a:	c9                   	leave  
  401e0b:	c3                   	ret    
  401e0c:	55                   	push   rbp
  401e0d:	48 89 e5             	mov    rbp,rsp
  401e10:	48 83 ec 50          	sub    rsp,0x50
  401e14:	48 89 7d c8          	mov    QWORD PTR [rbp-0x38],rdi
  401e18:	48 89 75 c0          	mov    QWORD PTR [rbp-0x40],rsi
  401e1c:	89 55 bc             	mov    DWORD PTR [rbp-0x44],edx
  401e1f:	64 48 8b 04 25 28 00 	mov    rax,QWORD PTR fs:0x28
  401e26:	00 00 
  401e28:	48 89 45 f8          	mov    QWORD PTR [rbp-0x8],rax
  401e2c:	31 c0                	xor    eax,eax
  401e2e:	48 c7 45 d8 00 00 00 	mov    QWORD PTR [rbp-0x28],0x0
  401e35:	00 
  401e36:	eb 64                	jmp    401e9c <exit@plt+0x17ac>
  401e38:	48 8b 45 c0          	mov    rax,QWORD PTR [rbp-0x40]
  401e3c:	48 8b 50 08          	mov    rdx,QWORD PTR [rax+0x8]
  401e40:	48 8b 00             	mov    rax,QWORD PTR [rax]
  401e43:	48 89 45 e0          	mov    QWORD PTR [rbp-0x20],rax
  401e47:	48 89 55 e8          	mov    QWORD PTR [rbp-0x18],rdx
  401e4b:	48 8b 55 c8          	mov    rdx,QWORD PTR [rbp-0x38]
  401e4f:	48 8b 45 c0          	mov    rax,QWORD PTR [rbp-0x40]
  401e53:	48 89 d6             	mov    rsi,rdx
  401e56:	48 89 c7             	mov    rdi,rax
  401e59:	e8 e7 fd ff ff       	call   401c45 <exit@plt+0x1555>
  401e5e:	48 8b 45 c8          	mov    rax,QWORD PTR [rbp-0x38]
  401e62:	48 8d 90 b0 00 00 00 	lea    rdx,[rax+0xb0]
  401e69:	48 8b 45 c0          	mov    rax,QWORD PTR [rbp-0x40]
  401e6d:	48 89 d6             	mov    rsi,rdx
  401e70:	48 89 c7             	mov    rdi,rax
  401e73:	e8 bc fe ff ff       	call   401d34 <exit@plt+0x1644>
  401e78:	48 8b 45 c8          	mov    rax,QWORD PTR [rbp-0x38]
  401e7c:	48 8d 88 b0 00 00 00 	lea    rcx,[rax+0xb0]
  401e83:	48 8b 45 e0          	mov    rax,QWORD PTR [rbp-0x20]
  401e87:	48 8b 55 e8          	mov    rdx,QWORD PTR [rbp-0x18]
  401e8b:	48 89 01             	mov    QWORD PTR [rcx],rax
  401e8e:	48 89 51 08          	mov    QWORD PTR [rcx+0x8],rdx
  401e92:	48 83 45 c0 10       	add    QWORD PTR [rbp-0x40],0x10
  401e97:	48 83 45 d8 10       	add    QWORD PTR [rbp-0x28],0x10
  401e9c:	8b 45 bc             	mov    eax,DWORD PTR [rbp-0x44]
  401e9f:	48 39 45 d8          	cmp    QWORD PTR [rbp-0x28],rax
  401ea3:	72 93                	jb     401e38 <exit@plt+0x1748>
  401ea5:	90                   	nop
  401ea6:	48 8b 45 f8          	mov    rax,QWORD PTR [rbp-0x8]
  401eaa:	64 48 33 04 25 28 00 	xor    rax,QWORD PTR fs:0x28
  401eb1:	00 00 
  401eb3:	74 05                	je     401eba <exit@plt+0x17ca>
  401eb5:	e8 c6 e7 ff ff       	call   400680 <__stack_chk_fail@plt>
  401eba:	c9                   	leave  
  401ebb:	c3                   	ret    
  401ebc:	55                   	push   rbp
  401ebd:	48 89 e5             	mov    rbp,rsp
  401ec0:	48 83 ec 50          	sub    rsp,0x50
  401ec4:	48 89 7d c8          	mov    QWORD PTR [rbp-0x38],rdi
  401ec8:	48 89 75 c0          	mov    QWORD PTR [rbp-0x40],rsi
  401ecc:	89 55 bc             	mov    DWORD PTR [rbp-0x44],edx
  401ecf:	64 48 8b 04 25 28 00 	mov    rax,QWORD PTR fs:0x28
  401ed6:	00 00 
  401ed8:	48 89 45 f8          	mov    QWORD PTR [rbp-0x8],rax
  401edc:	31 c0                	xor    eax,eax
  401ede:	c7 45 d8 00 00 00 00 	mov    DWORD PTR [rbp-0x28],0x0
  401ee5:	c7 45 dc 10 00 00 00 	mov    DWORD PTR [rbp-0x24],0x10
  401eec:	e9 cd 00 00 00       	jmp    401fbe <exit@plt+0x18ce>
  401ef1:	83 7d dc 10          	cmp    DWORD PTR [rbp-0x24],0x10
  401ef5:	0f 85 94 00 00 00    	jne    401f8f <exit@plt+0x189f>
  401efb:	48 8b 45 c8          	mov    rax,QWORD PTR [rbp-0x38]
  401eff:	48 05 b0 00 00 00    	add    rax,0xb0
  401f05:	48 8b 50 08          	mov    rdx,QWORD PTR [rax+0x8]
  401f09:	48 8b 00             	mov    rax,QWORD PTR [rax]
  401f0c:	48 89 45 e0          	mov    QWORD PTR [rbp-0x20],rax
  401f10:	48 89 55 e8          	mov    QWORD PTR [rbp-0x18],rdx
  401f14:	48 8b 55 c8          	mov    rdx,QWORD PTR [rbp-0x38]
  401f18:	48 8d 45 e0          	lea    rax,[rbp-0x20]
  401f1c:	48 89 d6             	mov    rsi,rdx
  401f1f:	48 89 c7             	mov    rdi,rax
  401f22:	e8 7b fc ff ff       	call   401ba2 <exit@plt+0x14b2>
  401f27:	c7 45 dc 0f 00 00 00 	mov    DWORD PTR [rbp-0x24],0xf
  401f2e:	eb 52                	jmp    401f82 <exit@plt+0x1892>
  401f30:	48 8b 55 c8          	mov    rdx,QWORD PTR [rbp-0x38]
  401f34:	8b 45 dc             	mov    eax,DWORD PTR [rbp-0x24]
  401f37:	48 98                	cdqe   
  401f39:	0f b6 84 02 b0 00 00 	movzx  eax,BYTE PTR [rdx+rax*1+0xb0]
  401f40:	00 
  401f41:	3c ff                	cmp    al,0xff
  401f43:	75 17                	jne    401f5c <exit@plt+0x186c>
  401f45:	48 8b 55 c8          	mov    rdx,QWORD PTR [rbp-0x38]
  401f49:	8b 45 dc             	mov    eax,DWORD PTR [rbp-0x24]
  401f4c:	48 98                	cdqe   
  401f4e:	c6 84 02 b0 00 00 00 	mov    BYTE PTR [rdx+rax*1+0xb0],0x0
  401f55:	00 
  401f56:	83 6d dc 01          	sub    DWORD PTR [rbp-0x24],0x1
  401f5a:	eb 26                	jmp    401f82 <exit@plt+0x1892>
  401f5c:	48 8b 55 c8          	mov    rdx,QWORD PTR [rbp-0x38]
  401f60:	8b 45 dc             	mov    eax,DWORD PTR [rbp-0x24]
  401f63:	48 98                	cdqe   
  401f65:	0f b6 84 02 b0 00 00 	movzx  eax,BYTE PTR [rdx+rax*1+0xb0]
  401f6c:	00 
  401f6d:	8d 48 01             	lea    ecx,[rax+0x1]
  401f70:	48 8b 55 c8          	mov    rdx,QWORD PTR [rbp-0x38]
  401f74:	8b 45 dc             	mov    eax,DWORD PTR [rbp-0x24]
  401f77:	48 98                	cdqe   
  401f79:	88 8c 02 b0 00 00 00 	mov    BYTE PTR [rdx+rax*1+0xb0],cl
  401f80:	eb 06                	jmp    401f88 <exit@plt+0x1898>
  401f82:	83 7d dc 00          	cmp    DWORD PTR [rbp-0x24],0x0
  401f86:	79 a8                	jns    401f30 <exit@plt+0x1840>
  401f88:	c7 45 dc 00 00 00 00 	mov    DWORD PTR [rbp-0x24],0x0
  401f8f:	8b 55 d8             	mov    edx,DWORD PTR [rbp-0x28]
  401f92:	48 8b 45 c0          	mov    rax,QWORD PTR [rbp-0x40]
  401f96:	48 01 d0             	add    rax,rdx
  401f99:	0f b6 30             	movzx  esi,BYTE PTR [rax]
  401f9c:	8b 45 dc             	mov    eax,DWORD PTR [rbp-0x24]
  401f9f:	48 98                	cdqe   
  401fa1:	0f b6 4c 05 e0       	movzx  ecx,BYTE PTR [rbp+rax*1-0x20]
  401fa6:	8b 55 d8             	mov    edx,DWORD PTR [rbp-0x28]
  401fa9:	48 8b 45 c0          	mov    rax,QWORD PTR [rbp-0x40]
  401fad:	48 01 d0             	add    rax,rdx
  401fb0:	31 ce                	xor    esi,ecx
  401fb2:	89 f2                	mov    edx,esi
  401fb4:	88 10                	mov    BYTE PTR [rax],dl
  401fb6:	83 45 d8 01          	add    DWORD PTR [rbp-0x28],0x1
  401fba:	83 45 dc 01          	add    DWORD PTR [rbp-0x24],0x1
  401fbe:	8b 45 d8             	mov    eax,DWORD PTR [rbp-0x28]
  401fc1:	3b 45 bc             	cmp    eax,DWORD PTR [rbp-0x44]
  401fc4:	0f 82 27 ff ff ff    	jb     401ef1 <exit@plt+0x1801>
  401fca:	90                   	nop
  401fcb:	48 8b 45 f8          	mov    rax,QWORD PTR [rbp-0x8]
  401fcf:	64 48 33 04 25 28 00 	xor    rax,QWORD PTR fs:0x28
  401fd6:	00 00 
  401fd8:	74 05                	je     401fdf <exit@plt+0x18ef>
  401fda:	e8 a1 e6 ff ff       	call   400680 <__stack_chk_fail@plt>
  401fdf:	c9                   	leave  
  401fe0:	c3                   	ret    
  401fe1:	66 2e 0f 1f 84 00 00 	nop    WORD PTR cs:[rax+rax*1+0x0]
  401fe8:	00 00 00 
  401feb:	0f 1f 44 00 00       	nop    DWORD PTR [rax+rax*1+0x0]
  401ff0:	41 57                	push   r15
  401ff2:	41 56                	push   r14
  401ff4:	49 89 d7             	mov    r15,rdx
  401ff7:	41 55                	push   r13
  401ff9:	41 54                	push   r12
  401ffb:	4c 8d 25 8e 0d 20 00 	lea    r12,[rip+0x200d8e]        # 602d90 <exit@plt+0x2026a0>
  402002:	55                   	push   rbp
  402003:	48 8d 2d 8e 0d 20 00 	lea    rbp,[rip+0x200d8e]        # 602d98 <exit@plt+0x2026a8>
  40200a:	53                   	push   rbx
  40200b:	41 89 fd             	mov    r13d,edi
  40200e:	49 89 f6             	mov    r14,rsi
  402011:	4c 29 e5             	sub    rbp,r12
  402014:	48 83 ec 08          	sub    rsp,0x8
  402018:	48 c1 fd 03          	sar    rbp,0x3
  40201c:	e8 27 e6 ff ff       	call   400648 <puts@plt-0x28>
  402021:	48 85 ed             	test   rbp,rbp
  402024:	74 20                	je     402046 <exit@plt+0x1956>
  402026:	31 db                	xor    ebx,ebx
  402028:	0f 1f 84 00 00 00 00 	nop    DWORD PTR [rax+rax*1+0x0]
  40202f:	00 
  402030:	4c 89 fa             	mov    rdx,r15
  402033:	4c 89 f6             	mov    rsi,r14
  402036:	44 89 ef             	mov    edi,r13d
  402039:	41 ff 14 dc          	call   QWORD PTR [r12+rbx*8]
  40203d:	48 83 c3 01          	add    rbx,0x1
  402041:	48 39 dd             	cmp    rbp,rbx
  402044:	75 ea                	jne    402030 <exit@plt+0x1940>
  402046:	48 83 c4 08          	add    rsp,0x8
  40204a:	5b                   	pop    rbx
  40204b:	5d                   	pop    rbp
  40204c:	41 5c                	pop    r12
  40204e:	41 5d                	pop    r13
  402050:	41 5e                	pop    r14
  402052:	41 5f                	pop    r15
  402054:	c3                   	ret    
  402055:	90                   	nop
  402056:	66 2e 0f 1f 84 00 00 	nop    WORD PTR cs:[rax+rax*1+0x0]
  40205d:	00 00 00 
  402060:	f3 c3                	repz ret 

Disassembly of section .fini:

0000000000402064 <.fini>:
  402064:	48 83 ec 08          	sub    rsp,0x8
  402068:	48 83 c4 08          	add    rsp,0x8
  40206c:	c3                   	ret    
